Archive member included because of file (symbol)

d:/altera/13.0sp1/nios2eds/bin/gnu/h-i686-mingw32/bin/../lib/gcc/nios2-elf/4.1.2\libgcc.a(_fixunsdfsi.o)
                              obj/default/dm9000a.o (__fixunsdfsi)
d:/altera/13.0sp1/nios2eds/bin/gnu/h-i686-mingw32/bin/../lib/gcc/nios2-elf/4.1.2\libgcc.a(_addsub_df.o)
                              d:/altera/13.0sp1/nios2eds/bin/gnu/h-i686-mingw32/bin/../lib/gcc/nios2-elf/4.1.2\libgcc.a(_fixunsdfsi.o) (__subdf3)
d:/altera/13.0sp1/nios2eds/bin/gnu/h-i686-mingw32/bin/../lib/gcc/nios2-elf/4.1.2\libgcc.a(_mul_df.o)
                              obj/default/dm9000a.o (__muldf3)
d:/altera/13.0sp1/nios2eds/bin/gnu/h-i686-mingw32/bin/../lib/gcc/nios2-elf/4.1.2\libgcc.a(_ge_df.o)
                              d:/altera/13.0sp1/nios2eds/bin/gnu/h-i686-mingw32/bin/../lib/gcc/nios2-elf/4.1.2\libgcc.a(_fixunsdfsi.o) (__gedf2)
d:/altera/13.0sp1/nios2eds/bin/gnu/h-i686-mingw32/bin/../lib/gcc/nios2-elf/4.1.2\libgcc.a(_df_to_si.o)
                              d:/altera/13.0sp1/nios2eds/bin/gnu/h-i686-mingw32/bin/../lib/gcc/nios2-elf/4.1.2\libgcc.a(_fixunsdfsi.o) (__fixdfsi)
d:/altera/13.0sp1/nios2eds/bin/gnu/h-i686-mingw32/bin/../lib/gcc/nios2-elf/4.1.2\libgcc.a(_thenan_df.o)
                              d:/altera/13.0sp1/nios2eds/bin/gnu/h-i686-mingw32/bin/../lib/gcc/nios2-elf/4.1.2\libgcc.a(_addsub_df.o) (__thenan_df)
d:/altera/13.0sp1/nios2eds/bin/gnu/h-i686-mingw32/bin/../lib/gcc/nios2-elf/4.1.2\libgcc.a(_usi_to_df.o)
                              obj/default/dm9000a.o (__floatunsidf)
d:/altera/13.0sp1/nios2eds/bin/gnu/h-i686-mingw32/bin/../lib/gcc/nios2-elf/4.1.2\libgcc.a(_muldi3.o)
                              d:/altera/13.0sp1/nios2eds/bin/gnu/h-i686-mingw32/bin/../lib/gcc/nios2-elf/4.1.2\libgcc.a(_mul_df.o) (__muldi3)
d:/altera/13.0sp1/nios2eds/bin/gnu/h-i686-mingw32/bin/../lib/gcc/nios2-elf/4.1.2\libgcc.a(_clzsi2.o)
                              d:/altera/13.0sp1/nios2eds/bin/gnu/h-i686-mingw32/bin/../lib/gcc/nios2-elf/4.1.2\libgcc.a(_usi_to_df.o) (__clzsi2)
d:/altera/13.0sp1/nios2eds/bin/gnu/h-i686-mingw32/bin/../lib/gcc/nios2-elf/4.1.2\libgcc.a(_pack_df.o)
                              d:/altera/13.0sp1/nios2eds/bin/gnu/h-i686-mingw32/bin/../lib/gcc/nios2-elf/4.1.2\libgcc.a(_addsub_df.o) (__pack_d)
d:/altera/13.0sp1/nios2eds/bin/gnu/h-i686-mingw32/bin/../lib/gcc/nios2-elf/4.1.2\libgcc.a(_unpack_df.o)
                              d:/altera/13.0sp1/nios2eds/bin/gnu/h-i686-mingw32/bin/../lib/gcc/nios2-elf/4.1.2\libgcc.a(_addsub_df.o) (__unpack_d)
d:/altera/13.0sp1/nios2eds/bin/gnu/h-i686-mingw32/bin/../lib/gcc/nios2-elf/4.1.2\libgcc.a(_fpcmp_parts_df.o)
                              d:/altera/13.0sp1/nios2eds/bin/gnu/h-i686-mingw32/bin/../lib/gcc/nios2-elf/4.1.2\libgcc.a(_ge_df.o) (__fpcmp_parts_d)
d:/altera/13.0sp1/nios2eds/bin/gnu/h-i686-mingw32/bin/../lib/gcc/nios2-elf/4.1.2\libgcc.a(_clz.o)
                              d:/altera/13.0sp1/nios2eds/bin/gnu/h-i686-mingw32/bin/../lib/gcc/nios2-elf/4.1.2\libgcc.a(_clzsi2.o) (__clz_tab)
d:/altera/13.0sp1/nios2eds/bin/gnu/h-i686-mingw32/bin/../lib/gcc/nios2-elf/4.1.2/../../../../nios2-elf/lib\libc.a(lib_a-ctype_.o)
                              obj/default/network_utilities.o (__ctype_ptr)
d:/altera/13.0sp1/nios2eds/bin/gnu/h-i686-mingw32/bin/../lib/gcc/nios2-elf/4.1.2/../../../../nios2-elf/lib\libc.a(lib_a-exit.o)
                              obj/default/iniche_init.o (exit)
d:/altera/13.0sp1/nios2eds/bin/gnu/h-i686-mingw32/bin/../lib/gcc/nios2-elf/4.1.2/../../../../nios2-elf/lib\libc.a(lib_a-fprintf.o)
                              obj/default/alt_error_handler.o (fprintf)
d:/altera/13.0sp1/nios2eds/bin/gnu/h-i686-mingw32/bin/../lib/gcc/nios2-elf/4.1.2/../../../../nios2-elf/lib\libc.a(lib_a-fwrite.o)
                              obj/default/alt_error_handler.o (fwrite)
d:/altera/13.0sp1/nios2eds/bin/gnu/h-i686-mingw32/bin/../lib/gcc/nios2-elf/4.1.2/../../../../nios2-elf/lib\libc.a(lib_a-getc.o)
                              obj/default/network_utilities.o (getc)
d:/altera/13.0sp1/nios2eds/bin/gnu/h-i686-mingw32/bin/../lib/gcc/nios2-elf/4.1.2/../../../../nios2-elf/lib\libc.a(lib_a-impure.o)
                              obj/default/alt_error_handler.o (_impure_ptr)
d:/altera/13.0sp1/nios2eds/bin/gnu/h-i686-mingw32/bin/../lib/gcc/nios2-elf/4.1.2/../../../../nios2-elf/lib\libc.a(lib_a-malloc.o)
                              obj/default/iniche_init.o (malloc)
d:/altera/13.0sp1/nios2eds/bin/gnu/h-i686-mingw32/bin/../lib/gcc/nios2-elf/4.1.2/../../../../nios2-elf/lib\libc.a(lib_a-mallocr.o)
                              d:/altera/13.0sp1/nios2eds/bin/gnu/h-i686-mingw32/bin/../lib/gcc/nios2-elf/4.1.2/../../../../nios2-elf/lib\libc.a(lib_a-malloc.o) (_malloc_r)
d:/altera/13.0sp1/nios2eds/bin/gnu/h-i686-mingw32/bin/../lib/gcc/nios2-elf/4.1.2/../../../../nios2-elf/lib\libc.a(lib_a-memcpy.o)
                              obj/default/iniche_init.o (memcpy)
d:/altera/13.0sp1/nios2eds/bin/gnu/h-i686-mingw32/bin/../lib/gcc/nios2-elf/4.1.2/../../../../nios2-elf/lib\libc.a(lib_a-memmove.o)
                              obj/default/simple_socket_server.o (memmove)
d:/altera/13.0sp1/nios2eds/bin/gnu/h-i686-mingw32/bin/../lib/gcc/nios2-elf/4.1.2/../../../../nios2-elf/lib\libc.a(lib_a-memset.o)
                              obj/default/simple_socket_server.o (memset)
d:/altera/13.0sp1/nios2eds/bin/gnu/h-i686-mingw32/bin/../lib/gcc/nios2-elf/4.1.2/../../../../nios2-elf/lib\libc.a(lib_a-perror.o)
                              obj/default/alt_error_handler.o (perror)
d:/altera/13.0sp1/nios2eds/bin/gnu/h-i686-mingw32/bin/../lib/gcc/nios2-elf/4.1.2/../../../../nios2-elf/lib\libc.a(lib_a-printf.o)
                              obj/default/SSS_DE2_115.o (printf)
d:/altera/13.0sp1/nios2eds/bin/gnu/h-i686-mingw32/bin/../lib/gcc/nios2-elf/4.1.2/../../../../nios2-elf/lib\libc.a(lib_a-putc.o)
                              obj/default/network_utilities.o (putc)
d:/altera/13.0sp1/nios2eds/bin/gnu/h-i686-mingw32/bin/../lib/gcc/nios2-elf/4.1.2/../../../../nios2-elf/lib\libc.a(lib_a-putchar.o)
                              obj/default/network_utilities.o (putchar)
d:/altera/13.0sp1/nios2eds/bin/gnu/h-i686-mingw32/bin/../lib/gcc/nios2-elf/4.1.2/../../../../nios2-elf/lib\libc.a(lib_a-puts.o)
                              obj/default/SSS_DE2_115.o (puts)
d:/altera/13.0sp1/nios2eds/bin/gnu/h-i686-mingw32/bin/../lib/gcc/nios2-elf/4.1.2/../../../../nios2-elf/lib\libc.a(lib_a-rget.o)
                              d:/altera/13.0sp1/nios2eds/bin/gnu/h-i686-mingw32/bin/../lib/gcc/nios2-elf/4.1.2/../../../../nios2-elf/lib\libc.a(lib_a-getc.o) (__srget_r)
d:/altera/13.0sp1/nios2eds/bin/gnu/h-i686-mingw32/bin/../lib/gcc/nios2-elf/4.1.2/../../../../nios2-elf/lib\libc.a(lib_a-sbrkr.o)
                              d:/altera/13.0sp1/nios2eds/bin/gnu/h-i686-mingw32/bin/../lib/gcc/nios2-elf/4.1.2/../../../../nios2-elf/lib\libc.a(lib_a-mallocr.o) (_sbrk_r)
d:/altera/13.0sp1/nios2eds/bin/gnu/h-i686-mingw32/bin/../lib/gcc/nios2-elf/4.1.2/../../../../nios2-elf/lib\libc.a(lib_a-strchr.o)
                              obj/default/simple_socket_server.o (strchr)
d:/altera/13.0sp1/nios2eds/bin/gnu/h-i686-mingw32/bin/../lib/gcc/nios2-elf/4.1.2/../../../../nios2-elf/lib\libc.a(lib_a-strerror.o)
                              d:/altera/13.0sp1/nios2eds/bin/gnu/h-i686-mingw32/bin/../lib/gcc/nios2-elf/4.1.2/../../../../nios2-elf/lib\libc.a(lib_a-perror.o) (strerror)
d:/altera/13.0sp1/nios2eds/bin/gnu/h-i686-mingw32/bin/../lib/gcc/nios2-elf/4.1.2/../../../../nios2-elf/lib\libc.a(lib_a-strlen.o)
                              obj/default/LCD.o (strlen)
d:/altera/13.0sp1/nios2eds/bin/gnu/h-i686-mingw32/bin/../lib/gcc/nios2-elf/4.1.2/../../../../nios2-elf/lib\libc.a(lib_a-u_strerr.o)
                              d:/altera/13.0sp1/nios2eds/bin/gnu/h-i686-mingw32/bin/../lib/gcc/nios2-elf/4.1.2/../../../../nios2-elf/lib\libc.a(lib_a-strerror.o) (_user_strerror)
d:/altera/13.0sp1/nios2eds/bin/gnu/h-i686-mingw32/bin/../lib/gcc/nios2-elf/4.1.2/../../../../nios2-elf/lib\libc.a(lib_a-vfprintf.o)
                              d:/altera/13.0sp1/nios2eds/bin/gnu/h-i686-mingw32/bin/../lib/gcc/nios2-elf/4.1.2/../../../../nios2-elf/lib\libc.a(lib_a-printf.o) (___vfprintf_internal_r)
d:/altera/13.0sp1/nios2eds/bin/gnu/h-i686-mingw32/bin/../lib/gcc/nios2-elf/4.1.2/../../../../nios2-elf/lib\libc.a(lib_a-wbuf.o)
                              d:/altera/13.0sp1/nios2eds/bin/gnu/h-i686-mingw32/bin/../lib/gcc/nios2-elf/4.1.2/../../../../nios2-elf/lib\libc.a(lib_a-putc.o) (__swbuf_r)
d:/altera/13.0sp1/nios2eds/bin/gnu/h-i686-mingw32/bin/../lib/gcc/nios2-elf/4.1.2/../../../../nios2-elf/lib\libc.a(lib_a-wsetup.o)
                              d:/altera/13.0sp1/nios2eds/bin/gnu/h-i686-mingw32/bin/../lib/gcc/nios2-elf/4.1.2/../../../../nios2-elf/lib\libc.a(lib_a-vfprintf.o) (__swsetup_r)
d:/altera/13.0sp1/nios2eds/bin/gnu/h-i686-mingw32/bin/../lib/gcc/nios2-elf/4.1.2/../../../../nios2-elf/lib\libc.a(lib_a-__call_atexit.o)
                              d:/altera/13.0sp1/nios2eds/bin/gnu/h-i686-mingw32/bin/../lib/gcc/nios2-elf/4.1.2/../../../../nios2-elf/lib\libc.a(lib_a-exit.o) (__call_exitprocs)
d:/altera/13.0sp1/nios2eds/bin/gnu/h-i686-mingw32/bin/../lib/gcc/nios2-elf/4.1.2/../../../../nios2-elf/lib\libc.a(lib_a-dtoa.o)
                              d:/altera/13.0sp1/nios2eds/bin/gnu/h-i686-mingw32/bin/../lib/gcc/nios2-elf/4.1.2/../../../../nios2-elf/lib\libc.a(lib_a-vfprintf.o) (_dtoa_r)
d:/altera/13.0sp1/nios2eds/bin/gnu/h-i686-mingw32/bin/../lib/gcc/nios2-elf/4.1.2/../../../../nios2-elf/lib\libc.a(lib_a-fflush.o)
                              d:/altera/13.0sp1/nios2eds/bin/gnu/h-i686-mingw32/bin/../lib/gcc/nios2-elf/4.1.2/../../../../nios2-elf/lib\libc.a(lib_a-vfprintf.o) (_fflush_r)
d:/altera/13.0sp1/nios2eds/bin/gnu/h-i686-mingw32/bin/../lib/gcc/nios2-elf/4.1.2/../../../../nios2-elf/lib\libc.a(lib_a-findfp.o)
                              d:/altera/13.0sp1/nios2eds/bin/gnu/h-i686-mingw32/bin/../lib/gcc/nios2-elf/4.1.2/../../../../nios2-elf/lib\libc.a(lib_a-fwrite.o) (__sinit)
d:/altera/13.0sp1/nios2eds/bin/gnu/h-i686-mingw32/bin/../lib/gcc/nios2-elf/4.1.2/../../../../nios2-elf/lib\libc.a(lib_a-fputc.o)
                              d:/altera/13.0sp1/nios2eds/bin/gnu/h-i686-mingw32/bin/../lib/gcc/nios2-elf/4.1.2/../../../../nios2-elf/lib\libc.a(lib_a-perror.o) (fputc)
d:/altera/13.0sp1/nios2eds/bin/gnu/h-i686-mingw32/bin/../lib/gcc/nios2-elf/4.1.2/../../../../nios2-elf/lib\libc.a(lib_a-fputs.o)
                              d:/altera/13.0sp1/nios2eds/bin/gnu/h-i686-mingw32/bin/../lib/gcc/nios2-elf/4.1.2/../../../../nios2-elf/lib\libc.a(lib_a-perror.o) (fputs)
d:/altera/13.0sp1/nios2eds/bin/gnu/h-i686-mingw32/bin/../lib/gcc/nios2-elf/4.1.2/../../../../nios2-elf/lib\libc.a(lib_a-freer.o)
                              d:/altera/13.0sp1/nios2eds/bin/gnu/h-i686-mingw32/bin/../lib/gcc/nios2-elf/4.1.2/../../../../nios2-elf/lib\libc.a(lib_a-malloc.o) (_free_r)
d:/altera/13.0sp1/nios2eds/bin/gnu/h-i686-mingw32/bin/../lib/gcc/nios2-elf/4.1.2/../../../../nios2-elf/lib\libc.a(lib_a-fvwrite.o)
                              d:/altera/13.0sp1/nios2eds/bin/gnu/h-i686-mingw32/bin/../lib/gcc/nios2-elf/4.1.2/../../../../nios2-elf/lib\libc.a(lib_a-fwrite.o) (__sfvwrite_r)
d:/altera/13.0sp1/nios2eds/bin/gnu/h-i686-mingw32/bin/../lib/gcc/nios2-elf/4.1.2/../../../../nios2-elf/lib\libc.a(lib_a-fwalk.o)
                              d:/altera/13.0sp1/nios2eds/bin/gnu/h-i686-mingw32/bin/../lib/gcc/nios2-elf/4.1.2/../../../../nios2-elf/lib\libc.a(lib_a-fflush.o) (_fwalk_reent)
d:/altera/13.0sp1/nios2eds/bin/gnu/h-i686-mingw32/bin/../lib/gcc/nios2-elf/4.1.2/../../../../nios2-elf/lib\libc.a(lib_a-int_errno.o)
                              d:/altera/13.0sp1/nios2eds/bin/gnu/h-i686-mingw32/bin/../lib/gcc/nios2-elf/4.1.2/../../../../nios2-elf/lib\libc.a(lib_a-sbrkr.o) (errno)
d:/altera/13.0sp1/nios2eds/bin/gnu/h-i686-mingw32/bin/../lib/gcc/nios2-elf/4.1.2/../../../../nios2-elf/lib\libc.a(lib_a-locale.o)
                              d:/altera/13.0sp1/nios2eds/bin/gnu/h-i686-mingw32/bin/../lib/gcc/nios2-elf/4.1.2/../../../../nios2-elf/lib\libc.a(lib_a-vfprintf.o) (_localeconv_r)
d:/altera/13.0sp1/nios2eds/bin/gnu/h-i686-mingw32/bin/../lib/gcc/nios2-elf/4.1.2/../../../../nios2-elf/lib\libc.a(lib_a-makebuf.o)
                              d:/altera/13.0sp1/nios2eds/bin/gnu/h-i686-mingw32/bin/../lib/gcc/nios2-elf/4.1.2/../../../../nios2-elf/lib\libc.a(lib_a-wsetup.o) (__smakebuf_r)
d:/altera/13.0sp1/nios2eds/bin/gnu/h-i686-mingw32/bin/../lib/gcc/nios2-elf/4.1.2/../../../../nios2-elf/lib\libc.a(lib_a-memchr.o)
                              d:/altera/13.0sp1/nios2eds/bin/gnu/h-i686-mingw32/bin/../lib/gcc/nios2-elf/4.1.2/../../../../nios2-elf/lib\libc.a(lib_a-vfprintf.o) (memchr)
d:/altera/13.0sp1/nios2eds/bin/gnu/h-i686-mingw32/bin/../lib/gcc/nios2-elf/4.1.2/../../../../nios2-elf/lib\libc.a(lib_a-mprec.o)
                              d:/altera/13.0sp1/nios2eds/bin/gnu/h-i686-mingw32/bin/../lib/gcc/nios2-elf/4.1.2/../../../../nios2-elf/lib\libc.a(lib_a-dtoa.o) (_Bfree)
d:/altera/13.0sp1/nios2eds/bin/gnu/h-i686-mingw32/bin/../lib/gcc/nios2-elf/4.1.2/../../../../nios2-elf/lib\libc.a(lib_a-reallocr.o)
                              d:/altera/13.0sp1/nios2eds/bin/gnu/h-i686-mingw32/bin/../lib/gcc/nios2-elf/4.1.2/../../../../nios2-elf/lib\libc.a(lib_a-fvwrite.o) (_realloc_r)
d:/altera/13.0sp1/nios2eds/bin/gnu/h-i686-mingw32/bin/../lib/gcc/nios2-elf/4.1.2/../../../../nios2-elf/lib\libc.a(lib_a-refill.o)
                              d:/altera/13.0sp1/nios2eds/bin/gnu/h-i686-mingw32/bin/../lib/gcc/nios2-elf/4.1.2/../../../../nios2-elf/lib\libc.a(lib_a-rget.o) (__srefill_r)
d:/altera/13.0sp1/nios2eds/bin/gnu/h-i686-mingw32/bin/../lib/gcc/nios2-elf/4.1.2/../../../../nios2-elf/lib\libc.a(lib_a-s_isinfd.o)
                              d:/altera/13.0sp1/nios2eds/bin/gnu/h-i686-mingw32/bin/../lib/gcc/nios2-elf/4.1.2/../../../../nios2-elf/lib\libc.a(lib_a-vfprintf.o) (__isinfd)
d:/altera/13.0sp1/nios2eds/bin/gnu/h-i686-mingw32/bin/../lib/gcc/nios2-elf/4.1.2/../../../../nios2-elf/lib\libc.a(lib_a-s_isnand.o)
                              d:/altera/13.0sp1/nios2eds/bin/gnu/h-i686-mingw32/bin/../lib/gcc/nios2-elf/4.1.2/../../../../nios2-elf/lib\libc.a(lib_a-vfprintf.o) (__isnand)
d:/altera/13.0sp1/nios2eds/bin/gnu/h-i686-mingw32/bin/../lib/gcc/nios2-elf/4.1.2/../../../../nios2-elf/lib\libc.a(lib_a-stdio.o)
                              d:/altera/13.0sp1/nios2eds/bin/gnu/h-i686-mingw32/bin/../lib/gcc/nios2-elf/4.1.2/../../../../nios2-elf/lib\libc.a(lib_a-findfp.o) (__sclose)
d:/altera/13.0sp1/nios2eds/bin/gnu/h-i686-mingw32/bin/../lib/gcc/nios2-elf/4.1.2/../../../../nios2-elf/lib\libc.a(lib_a-strcmp.o)
                              d:/altera/13.0sp1/nios2eds/bin/gnu/h-i686-mingw32/bin/../lib/gcc/nios2-elf/4.1.2/../../../../nios2-elf/lib\libc.a(lib_a-locale.o) (strcmp)
d:/altera/13.0sp1/nios2eds/bin/gnu/h-i686-mingw32/bin/../lib/gcc/nios2-elf/4.1.2/../../../../nios2-elf/lib\libc.a(lib_a-writer.o)
                              d:/altera/13.0sp1/nios2eds/bin/gnu/h-i686-mingw32/bin/../lib/gcc/nios2-elf/4.1.2/../../../../nios2-elf/lib\libc.a(lib_a-stdio.o) (_write_r)
d:/altera/13.0sp1/nios2eds/bin/gnu/h-i686-mingw32/bin/../lib/gcc/nios2-elf/4.1.2/../../../../nios2-elf/lib\libc.a(lib_a-callocr.o)
                              d:/altera/13.0sp1/nios2eds/bin/gnu/h-i686-mingw32/bin/../lib/gcc/nios2-elf/4.1.2/../../../../nios2-elf/lib\libc.a(lib_a-mprec.o) (_calloc_r)
d:/altera/13.0sp1/nios2eds/bin/gnu/h-i686-mingw32/bin/../lib/gcc/nios2-elf/4.1.2/../../../../nios2-elf/lib\libc.a(lib_a-closer.o)
                              d:/altera/13.0sp1/nios2eds/bin/gnu/h-i686-mingw32/bin/../lib/gcc/nios2-elf/4.1.2/../../../../nios2-elf/lib\libc.a(lib_a-stdio.o) (_close_r)
d:/altera/13.0sp1/nios2eds/bin/gnu/h-i686-mingw32/bin/../lib/gcc/nios2-elf/4.1.2/../../../../nios2-elf/lib\libc.a(lib_a-fclose.o)
                              d:/altera/13.0sp1/nios2eds/bin/gnu/h-i686-mingw32/bin/../lib/gcc/nios2-elf/4.1.2/../../../../nios2-elf/lib\libc.a(lib_a-findfp.o) (fclose)
d:/altera/13.0sp1/nios2eds/bin/gnu/h-i686-mingw32/bin/../lib/gcc/nios2-elf/4.1.2/../../../../nios2-elf/lib\libc.a(lib_a-fstatr.o)
                              d:/altera/13.0sp1/nios2eds/bin/gnu/h-i686-mingw32/bin/../lib/gcc/nios2-elf/4.1.2/../../../../nios2-elf/lib\libc.a(lib_a-makebuf.o) (_fstat_r)
d:/altera/13.0sp1/nios2eds/bin/gnu/h-i686-mingw32/bin/../lib/gcc/nios2-elf/4.1.2/../../../../nios2-elf/lib\libc.a(lib_a-isattyr.o)
                              d:/altera/13.0sp1/nios2eds/bin/gnu/h-i686-mingw32/bin/../lib/gcc/nios2-elf/4.1.2/../../../../nios2-elf/lib\libc.a(lib_a-makebuf.o) (_isatty_r)
d:/altera/13.0sp1/nios2eds/bin/gnu/h-i686-mingw32/bin/../lib/gcc/nios2-elf/4.1.2/../../../../nios2-elf/lib\libc.a(lib_a-lseekr.o)
                              d:/altera/13.0sp1/nios2eds/bin/gnu/h-i686-mingw32/bin/../lib/gcc/nios2-elf/4.1.2/../../../../nios2-elf/lib\libc.a(lib_a-stdio.o) (_lseek_r)
d:/altera/13.0sp1/nios2eds/bin/gnu/h-i686-mingw32/bin/../lib/gcc/nios2-elf/4.1.2/../../../../nios2-elf/lib\libc.a(lib_a-readr.o)
                              d:/altera/13.0sp1/nios2eds/bin/gnu/h-i686-mingw32/bin/../lib/gcc/nios2-elf/4.1.2/../../../../nios2-elf/lib\libc.a(lib_a-stdio.o) (_read_r)
d:/altera/13.0sp1/nios2eds/bin/gnu/h-i686-mingw32/bin/../lib/gcc/nios2-elf/4.1.2\libgcc.a(_udivdi3.o)
                              d:/altera/13.0sp1/nios2eds/bin/gnu/h-i686-mingw32/bin/../lib/gcc/nios2-elf/4.1.2/../../../../nios2-elf/lib\libc.a(lib_a-vfprintf.o) (__udivdi3)
d:/altera/13.0sp1/nios2eds/bin/gnu/h-i686-mingw32/bin/../lib/gcc/nios2-elf/4.1.2\libgcc.a(_umoddi3.o)
                              d:/altera/13.0sp1/nios2eds/bin/gnu/h-i686-mingw32/bin/../lib/gcc/nios2-elf/4.1.2/../../../../nios2-elf/lib\libc.a(lib_a-vfprintf.o) (__umoddi3)
d:/altera/13.0sp1/nios2eds/bin/gnu/h-i686-mingw32/bin/../lib/gcc/nios2-elf/4.1.2\libgcc.a(_div_df.o)
                              d:/altera/13.0sp1/nios2eds/bin/gnu/h-i686-mingw32/bin/../lib/gcc/nios2-elf/4.1.2/../../../../nios2-elf/lib\libc.a(lib_a-dtoa.o) (__divdf3)
d:/altera/13.0sp1/nios2eds/bin/gnu/h-i686-mingw32/bin/../lib/gcc/nios2-elf/4.1.2\libgcc.a(_eq_df.o)
                              d:/altera/13.0sp1/nios2eds/bin/gnu/h-i686-mingw32/bin/../lib/gcc/nios2-elf/4.1.2/../../../../nios2-elf/lib\libc.a(lib_a-vfprintf.o) (__eqdf2)
d:/altera/13.0sp1/nios2eds/bin/gnu/h-i686-mingw32/bin/../lib/gcc/nios2-elf/4.1.2\libgcc.a(_ne_df.o)
                              d:/altera/13.0sp1/nios2eds/bin/gnu/h-i686-mingw32/bin/../lib/gcc/nios2-elf/4.1.2/../../../../nios2-elf/lib\libc.a(lib_a-vfprintf.o) (__nedf2)
d:/altera/13.0sp1/nios2eds/bin/gnu/h-i686-mingw32/bin/../lib/gcc/nios2-elf/4.1.2\libgcc.a(_gt_df.o)
                              d:/altera/13.0sp1/nios2eds/bin/gnu/h-i686-mingw32/bin/../lib/gcc/nios2-elf/4.1.2/../../../../nios2-elf/lib\libc.a(lib_a-dtoa.o) (__gtdf2)
d:/altera/13.0sp1/nios2eds/bin/gnu/h-i686-mingw32/bin/../lib/gcc/nios2-elf/4.1.2\libgcc.a(_lt_df.o)
                              d:/altera/13.0sp1/nios2eds/bin/gnu/h-i686-mingw32/bin/../lib/gcc/nios2-elf/4.1.2/../../../../nios2-elf/lib\libc.a(lib_a-vfprintf.o) (__ltdf2)
d:/altera/13.0sp1/nios2eds/bin/gnu/h-i686-mingw32/bin/../lib/gcc/nios2-elf/4.1.2\libgcc.a(_si_to_df.o)
                              d:/altera/13.0sp1/nios2eds/bin/gnu/h-i686-mingw32/bin/../lib/gcc/nios2-elf/4.1.2/../../../../nios2-elf/lib\libc.a(lib_a-dtoa.o) (__floatsidf)
d:/altera/13.0sp1/nios2eds/bin/gnu/h-i686-mingw32/bin/../lib/gcc/nios2-elf/4.1.2\libgcc.a(lib2-divmod.o)
                              d:/altera/13.0sp1/nios2eds/bin/gnu/h-i686-mingw32/bin/../lib/gcc/nios2-elf/4.1.2/../../../../nios2-elf/lib\libc.a(lib_a-vfprintf.o) (__divsi3)
../fir_bsp/\libucosii_bsp.a(alt_exit.o)
                              d:/altera/13.0sp1/nios2eds/bin/gnu/h-i686-mingw32/bin/../lib/gcc/nios2-elf/4.1.2/../../../../nios2-elf/lib\libc.a(lib_a-exit.o) (_exit)
../fir_bsp/\libucosii_bsp.a(alt_flash_dev.o)
                              obj/default/SSS_DE2_115.o (alt_flash_open_dev)
../fir_bsp/\libucosii_bsp.a(alt_fstat.o)
                              d:/altera/13.0sp1/nios2eds/bin/gnu/h-i686-mingw32/bin/../lib/gcc/nios2-elf/4.1.2/../../../../nios2-elf/lib\libc.a(lib_a-fstatr.o) (fstat)
../fir_bsp/\libucosii_bsp.a(alt_irq_register.o)
                              obj/default/dm9000a.o (alt_irq_register)
../fir_bsp/\libucosii_bsp.a(alt_irq_vars.o)
                              ../fir_bsp/\libucosii_bsp.a(alt_irq_register.o) (alt_irq_active)
../fir_bsp/\libucosii_bsp.a(alt_isatty.o)
                              d:/altera/13.0sp1/nios2eds/bin/gnu/h-i686-mingw32/bin/../lib/gcc/nios2-elf/4.1.2/../../../../nios2-elf/lib\libc.a(lib_a-isattyr.o) (isatty)
../fir_bsp/\libucosii_bsp.a(alt_lseek.o)
                              d:/altera/13.0sp1/nios2eds/bin/gnu/h-i686-mingw32/bin/../lib/gcc/nios2-elf/4.1.2/../../../../nios2-elf/lib\libc.a(lib_a-lseekr.o) (lseek)
../fir_bsp/\libucosii_bsp.a(alt_main.o)
                              ../fir_bsp//obj/HAL/src/crt0.o (alt_main)
../fir_bsp/\libucosii_bsp.a(alt_sbrk.o)
                              d:/altera/13.0sp1/nios2eds/bin/gnu/h-i686-mingw32/bin/../lib/gcc/nios2-elf/4.1.2/../../../../nios2-elf/lib\libc.a(lib_a-sbrkr.o) (sbrk)
../fir_bsp/\libucosii_bsp.a(alt_usleep.o)
                              obj/default/LCD.o (usleep)
../fir_bsp/\libucosii_bsp.a(alt_env_lock.o)
                              ../fir_bsp/\libucosii_bsp.a(alt_main.o) (alt_envsem)
../fir_bsp/\libucosii_bsp.a(alt_malloc_lock.o)
                              d:/altera/13.0sp1/nios2eds/bin/gnu/h-i686-mingw32/bin/../lib/gcc/nios2-elf/4.1.2/../../../../nios2-elf/lib\libc.a(lib_a-mallocr.o) (__malloc_lock)
../fir_bsp/\libucosii_bsp.a(os_core.o)
                              ../fir_bsp/\libucosii_bsp.a(alt_main.o) (OSInit)
../fir_bsp/\libucosii_bsp.a(os_dbg.o)
                              ../fir_bsp/\libucosii_bsp.a(os_core.o) (OSDebugInit)
../fir_bsp/\libucosii_bsp.a(os_flag.o)
                              obj/default/simple_socket_server.o (OSFlagCreate)
../fir_bsp/\libucosii_bsp.a(os_mem.o)
                              ../fir_bsp/\libucosii_bsp.a(os_core.o) (OS_MemInit)
../fir_bsp/\libucosii_bsp.a(os_q.o)
                              obj/default/simple_socket_server.o (OSQCreate)
../fir_bsp/\libucosii_bsp.a(os_sem.o)
                              obj/default/simple_socket_server.o (OSSemCreate)
../fir_bsp/\libucosii_bsp.a(os_task.o)
                              obj/default/iniche_init.o (OSTaskCreateExt)
../fir_bsp/\libucosii_bsp.a(os_time.o)
                              ../fir_bsp/\libucosii_bsp.a(alt_usleep.o) (OSTimeDly)
../fir_bsp/\libucosii_bsp.a(alt_sys_init.o)
                              ../fir_bsp/\libucosii_bsp.a(alt_main.o) (alt_irq_init)
../fir_bsp/\libucosii_bsp.a(altera_avalon_cfi_flash.o)
                              ../fir_bsp/\libucosii_bsp.a(alt_sys_init.o) (alt_flash_cfi_init)
../fir_bsp/\libucosii_bsp.a(altera_avalon_cfi_flash_table.o)
                              ../fir_bsp/\libucosii_bsp.a(altera_avalon_cfi_flash.o) (alt_set_flash_width_func)
../fir_bsp/\libucosii_bsp.a(altera_avalon_epcs_flash_controller.o)
                              ../fir_bsp/\libucosii_bsp.a(alt_sys_init.o) (alt_epcs_flash_init)
../fir_bsp/\libucosii_bsp.a(altera_avalon_jtag_uart_fd.o)
                              ../fir_bsp/\libucosii_bsp.a(alt_sys_init.o) (altera_avalon_jtag_uart_read_fd)
../fir_bsp/\libucosii_bsp.a(altera_avalon_jtag_uart_init.o)
                              ../fir_bsp/\libucosii_bsp.a(alt_sys_init.o) (altera_avalon_jtag_uart_init)
../fir_bsp/\libucosii_bsp.a(altera_avalon_jtag_uart_ioctl.o)
                              ../fir_bsp/\libucosii_bsp.a(altera_avalon_jtag_uart_fd.o) (altera_avalon_jtag_uart_ioctl)
../fir_bsp/\libucosii_bsp.a(altera_avalon_jtag_uart_read.o)
                              ../fir_bsp/\libucosii_bsp.a(altera_avalon_jtag_uart_fd.o) (altera_avalon_jtag_uart_read)
../fir_bsp/\libucosii_bsp.a(altera_avalon_jtag_uart_write.o)
                              ../fir_bsp/\libucosii_bsp.a(altera_avalon_jtag_uart_fd.o) (altera_avalon_jtag_uart_write)
../fir_bsp/\libucosii_bsp.a(altera_avalon_lcd_16207.o)
                              ../fir_bsp/\libucosii_bsp.a(alt_sys_init.o) (altera_avalon_lcd_16207_init)
../fir_bsp/\libucosii_bsp.a(altera_avalon_lcd_16207_fd.o)
                              ../fir_bsp/\libucosii_bsp.a(alt_sys_init.o) (altera_avalon_lcd_16207_write_fd)
../fir_bsp/\libucosii_bsp.a(altera_avalon_timer_sc.o)
                              ../fir_bsp/\libucosii_bsp.a(alt_sys_init.o) (alt_avalon_timer_sc_init)
../fir_bsp/\libucosii_bsp.a(altera_avalon_uart_fd.o)
                              ../fir_bsp/\libucosii_bsp.a(alt_sys_init.o) (altera_avalon_uart_read_fd)
../fir_bsp/\libucosii_bsp.a(altera_avalon_uart_init.o)
                              ../fir_bsp/\libucosii_bsp.a(alt_sys_init.o) (altera_avalon_uart_init)
../fir_bsp/\libucosii_bsp.a(altera_avalon_uart_read.o)
                              ../fir_bsp/\libucosii_bsp.a(altera_avalon_uart_fd.o) (altera_avalon_uart_read)
../fir_bsp/\libucosii_bsp.a(altera_avalon_uart_write.o)
                              ../fir_bsp/\libucosii_bsp.a(altera_avalon_uart_fd.o) (altera_avalon_uart_write)
../fir_bsp/\libucosii_bsp.a(epcs_commands.o)
                              ../fir_bsp/\libucosii_bsp.a(altera_avalon_epcs_flash_controller.o) (epcs_sector_erase)
../fir_bsp/\libucosii_bsp.a(alt_iniche_close.o)
                              obj/default/simple_socket_server.o (close)
../fir_bsp/\libucosii_bsp.a(alt_iniche_dev.o)
                              obj/default/iniche_init.o (alt_iniche_dev_list)
../fir_bsp/\libucosii_bsp.a(alt_iniche_read.o)
                              d:/altera/13.0sp1/nios2eds/bin/gnu/h-i686-mingw32/bin/../lib/gcc/nios2-elf/4.1.2/../../../../nios2-elf/lib\libc.a(lib_a-readr.o) (read)
../fir_bsp/\libucosii_bsp.a(alt_iniche_write.o)
                              d:/altera/13.0sp1/nios2eds/bin/gnu/h-i686-mingw32/bin/../lib/gcc/nios2-elf/4.1.2/../../../../nios2-elf/lib\libc.a(lib_a-writer.o) (write)
../fir_bsp/\libucosii_bsp.a(ipnet.o)
                              obj/default/dm9000a.o (rcvdq)
../fir_bsp/\libucosii_bsp.a(ipstart.o)
                              ../fir_bsp/\libucosii_bsp.a(ipnet.o) (ifNumber)
../fir_bsp/\libucosii_bsp.a(igmp_cmn.o)
                              ../fir_bsp/\libucosii_bsp.a(ipstart.o) (igmp_init)
../fir_bsp/\libucosii_bsp.a(bsdsock.o)
                              obj/default/simple_socket_server.o (bsd_accept)
../fir_bsp/\libucosii_bsp.a(cksum.o)
                              ../fir_bsp/\libucosii_bsp.a(igmp_cmn.o) (cksum)
../fir_bsp/\libucosii_bsp.a(in_utils.o)
                              ../fir_bsp/\libucosii_bsp.a(igmp_cmn.o) (ns_printf)
../fir_bsp/\libucosii_bsp.a(parseip.o)
                              obj/default/simple_socket_server.o (inet_pton)
../fir_bsp/\libucosii_bsp.a(tk_crnos.o)
                              ../fir_bsp/\libucosii_bsp.a(ipnet.o) (tk_yield)
../fir_bsp/\libucosii_bsp.a(pktalloc.o)
                              ../fir_bsp/\libucosii_bsp.a(ipnet.o) (pk_init)
../fir_bsp/\libucosii_bsp.a(q.o)
                              ../fir_bsp/\libucosii_bsp.a(ipnet.o) (getq)
../fir_bsp/\libucosii_bsp.a(asm_cksum.o)
                              ../fir_bsp/\libucosii_bsp.a(cksum.o) (asm_cksum)
../fir_bsp/\libucosii_bsp.a(brdutils.o)
                              ../fir_bsp/\libucosii_bsp.a(ipnet.o) (dtrap)
../fir_bsp/\libucosii_bsp.a(osportco.o)
                              ../fir_bsp/\libucosii_bsp.a(tk_crnos.o) (tcp_sleep_count)
../fir_bsp/\libucosii_bsp.a(targnios.o)
                              obj/default/dm9000a.o (rcvdq_sem_ptr)
../fir_bsp/\libucosii_bsp.a(nptcp.o)
                              ../fir_bsp/\libucosii_bsp.a(bsdsock.o) (soq)
../fir_bsp/\libucosii_bsp.a(rawsock.o)
                              ../fir_bsp/\libucosii_bsp.a(nptcp.o) (rawip_usrreq)
../fir_bsp/\libucosii_bsp.a(sockcall.o)
                              obj/default/simple_socket_server.o (t_socket)
../fir_bsp/\libucosii_bsp.a(socket.o)
                              ../fir_bsp/\libucosii_bsp.a(sockcall.o) (socreate)
../fir_bsp/\libucosii_bsp.a(socket2.o)
                              ../fir_bsp/\libucosii_bsp.a(sockcall.o) (soqremque)
../fir_bsp/\libucosii_bsp.a(soselect.o)
                              ../fir_bsp/\libucosii_bsp.a(bsdsock.o) (t_select)
../fir_bsp/\libucosii_bsp.a(tcp_in.o)
                              ../fir_bsp/\libucosii_bsp.a(nptcp.o) (tcp_input)
../fir_bsp/\libucosii_bsp.a(tcp_out.o)
                              ../fir_bsp/\libucosii_bsp.a(tcp_in.o) (tcp_output)
../fir_bsp/\libucosii_bsp.a(tcp_subr.o)
                              ../fir_bsp/\libucosii_bsp.a(nptcp.o) (tcp_init)
../fir_bsp/\libucosii_bsp.a(tcp_timr.o)
                              ../fir_bsp/\libucosii_bsp.a(tcp_in.o) (tcp_keepidle)
../fir_bsp/\libucosii_bsp.a(tcp_usr.o)
                              ../fir_bsp/\libucosii_bsp.a(nptcp.o) (tcp_usrreq)
../fir_bsp/\libucosii_bsp.a(tcpport.o)
                              ../fir_bsp/\libucosii_bsp.a(ipstart.o) (tcpinit)
../fir_bsp/\libucosii_bsp.a(udpsock.o)
                              ../fir_bsp/\libucosii_bsp.a(nptcp.o) (udp_usrreq)
../fir_bsp/\libucosii_bsp.a(alt_alarm_start.o)
                              ../fir_bsp/\libucosii_bsp.a(altera_avalon_jtag_uart_init.o) (alt_alarm_start)
../fir_bsp/\libucosii_bsp.a(alt_busy_sleep.o)
                              ../fir_bsp/\libucosii_bsp.a(alt_usleep.o) (alt_busy_sleep)
../fir_bsp/\libucosii_bsp.a(alt_close.o)
                              ../fir_bsp/\libucosii_bsp.a(alt_iniche_close.o) (alt_close)
../fir_bsp/\libucosii_bsp.a(alt_dcache_flush.o)
                              ../fir_bsp/\libucosii_bsp.a(altera_avalon_cfi_flash.o) (alt_dcache_flush)
../fir_bsp/\libucosii_bsp.a(alt_dev.o)
                              ../fir_bsp/\libucosii_bsp.a(alt_sys_init.o) (alt_dev_list)
../fir_bsp/\libucosii_bsp.a(alt_dev_llist_insert.o)
                              ../fir_bsp/\libucosii_bsp.a(alt_sys_init.o) (alt_dev_llist_insert)
../fir_bsp/\libucosii_bsp.a(alt_do_ctors.o)
                              ../fir_bsp/\libucosii_bsp.a(alt_main.o) (_do_ctors)
../fir_bsp/\libucosii_bsp.a(alt_do_dtors.o)
                              ../fir_bsp/\libucosii_bsp.a(alt_main.o) (_do_dtors)
../fir_bsp/\libucosii_bsp.a(alt_errno.o)
                              ../fir_bsp/\libucosii_bsp.a(alt_fstat.o) (alt_errno)
../fir_bsp/\libucosii_bsp.a(alt_find_dev.o)
                              ../fir_bsp/\libucosii_bsp.a(alt_flash_dev.o) (alt_find_dev)
../fir_bsp/\libucosii_bsp.a(alt_iic.o)
                              ../fir_bsp/\libucosii_bsp.a(altera_avalon_jtag_uart_init.o) (alt_ic_isr_register)
../fir_bsp/\libucosii_bsp.a(alt_iic_isr_register.o)
                              ../fir_bsp/\libucosii_bsp.a(alt_iic.o) (alt_iic_isr_register)
../fir_bsp/\libucosii_bsp.a(alt_io_redirect.o)
                              ../fir_bsp/\libucosii_bsp.a(alt_main.o) (alt_io_redirect)
../fir_bsp/\libucosii_bsp.a(alt_irq_entry.o)
                              ../fir_bsp/\libucosii_bsp.a(alt_irq_register.o) (alt_irq_entry)
../fir_bsp/\libucosii_bsp.a(alt_irq_handler.o)
                              ../fir_bsp/\libucosii_bsp.a(alt_irq_register.o) (alt_irq_handler)
../fir_bsp/\libucosii_bsp.a(alt_open.o)
                              ../fir_bsp/\libucosii_bsp.a(alt_io_redirect.o) (open)
../fir_bsp/\libucosii_bsp.a(alt_read.o)
                              ../fir_bsp/\libucosii_bsp.a(alt_iniche_read.o) (alt_read)
../fir_bsp/\libucosii_bsp.a(alt_release_fd.o)
                              ../fir_bsp/\libucosii_bsp.a(alt_close.o) (alt_release_fd)
../fir_bsp/\libucosii_bsp.a(alt_remap_cached.o)
                              ../fir_bsp/\libucosii_bsp.a(targnios.o) (alt_remap_cached)
../fir_bsp/\libucosii_bsp.a(alt_remap_uncached.o)
                              ../fir_bsp/\libucosii_bsp.a(targnios.o) (alt_remap_uncached)
../fir_bsp/\libucosii_bsp.a(alt_tick.o)
                              ../fir_bsp/\libucosii_bsp.a(alt_usleep.o) (_alt_tick_rate)
../fir_bsp/\libucosii_bsp.a(alt_write.o)
                              ../fir_bsp/\libucosii_bsp.a(alt_iniche_write.o) (alt_write)
../fir_bsp/\libucosii_bsp.a(altera_nios2_qsys_irq.o)
                              ../fir_bsp/\libucosii_bsp.a(alt_sys_init.o) (altera_nios2_qsys_irq_init)
../fir_bsp/\libucosii_bsp.a(os_cpu_a.o)
                              ../fir_bsp/\libucosii_bsp.a(os_core.o) (OSIntCtxSw)
../fir_bsp/\libucosii_bsp.a(os_cpu_c.o)
                              ../fir_bsp/\libucosii_bsp.a(os_task.o) (OSTaskStkInit)
../fir_bsp/\libucosii_bsp.a(altera_avalon_cfi_flash_amd.o)
                              ../fir_bsp/\libucosii_bsp.a(altera_avalon_cfi_flash_table.o) (alt_program_amd)
../fir_bsp/\libucosii_bsp.a(altera_avalon_cfi_flash_intel.o)
                              ../fir_bsp/\libucosii_bsp.a(altera_avalon_cfi_flash_table.o) (alt_program_intel)
../fir_bsp/\libucosii_bsp.a(altera_avalon_spi.o)
                              ../fir_bsp/\libucosii_bsp.a(epcs_commands.o) (alt_avalon_spi_command)
../fir_bsp/\libucosii_bsp.a(allports.o)
                              ../fir_bsp/\libucosii_bsp.a(alt_iniche_dev.o) (mcastlist)
../fir_bsp/\libucosii_bsp.a(tk_misc.o)
                              ../fir_bsp/\libucosii_bsp.a(allports.o) (task_stats)
../fir_bsp/\libucosii_bsp.a(alt_iniche_fcntl.o)
                              ../fir_bsp/\libucosii_bsp.a(brdutils.o) (fcntl)
../fir_bsp/\libucosii_bsp.a(et_arp.o)
                              ../fir_bsp/\libucosii_bsp.a(ipstart.o) (etainit)
../fir_bsp/\libucosii_bsp.a(iface.o)
                              ../fir_bsp/\libucosii_bsp.a(ipnet.o) (netlist)
../fir_bsp/\libucosii_bsp.a(ip.o)
                              ../fir_bsp/\libucosii_bsp.a(ipstart.o) (ip_init)
../fir_bsp/\libucosii_bsp.a(ipdemux.o)
                              ../fir_bsp/\libucosii_bsp.a(ipnet.o) (ip_rcv)
../fir_bsp/\libucosii_bsp.a(ipmc.o)
                              ../fir_bsp/\libucosii_bsp.a(ipstart.o) (in_addmulti)
../fir_bsp/\libucosii_bsp.a(ipport.o)
                              ../fir_bsp/\libucosii_bsp.a(targnios.o) (port_prep)
../fir_bsp/\libucosii_bsp.a(ipraw.o)
                              ../fir_bsp/\libucosii_bsp.a(rawsock.o) (ipraw_eps)
../fir_bsp/\libucosii_bsp.a(iproute.o)
                              ../fir_bsp/\libucosii_bsp.a(ip.o) (cachedRoute)
../fir_bsp/\libucosii_bsp.a(udp.o)
                              ../fir_bsp/\libucosii_bsp.a(ipdemux.o) (udpdemux)
../fir_bsp/\libucosii_bsp.a(igmp.o)
                              ../fir_bsp/\libucosii_bsp.a(igmp_cmn.o) (igmpv1_input)
../fir_bsp/\libucosii_bsp.a(igmp2.o)
                              ../fir_bsp/\libucosii_bsp.a(igmp_cmn.o) (igmpv2_input)
../fir_bsp/\libucosii_bsp.a(ipopt.o)
                              ../fir_bsp/\libucosii_bsp.a(socket.o) (ip_setmoptions)
../fir_bsp/\libucosii_bsp.a(u_mctest.o)
                              ../fir_bsp/\libucosii_bsp.a(allports.o) (u_mctest_init)
../fir_bsp/\libucosii_bsp.a(dhcsetup.o)
                              ../fir_bsp/\libucosii_bsp.a(allports.o) (dhc_setup)
../fir_bsp/\libucosii_bsp.a(memdev.o)
                              ../fir_bsp/\libucosii_bsp.a(allports.o) (init_memdev)
../fir_bsp/\libucosii_bsp.a(netmain.o)
                              ../fir_bsp/\libucosii_bsp.a(tk_misc.o) (netmain_wakes)
../fir_bsp/\libucosii_bsp.a(tcpcksum.o)
                              ../fir_bsp/\libucosii_bsp.a(nptcp.o) (tcp_cksum)
../fir_bsp/\libucosii_bsp.a(dhcpclnt.o)
                              ../fir_bsp/\libucosii_bsp.a(dhcsetup.o) (dhc_init)
../fir_bsp/\libucosii_bsp.a(dhcputil.o)
                              ../fir_bsp/\libucosii_bsp.a(dhcpclnt.o) (find_opt)
../fir_bsp/\libucosii_bsp.a(udp_open.o)
                              ../fir_bsp/\libucosii_bsp.a(nptcp.o) (firstudp)
../fir_bsp/\libucosii_bsp.a(in_pcb.o)
                              ../fir_bsp/\libucosii_bsp.a(tcp_usr.o) (in_pcballoc)
../fir_bsp/\libucosii_bsp.a(vfsfiles.o)
                              ../fir_bsp/\libucosii_bsp.a(memdev.o) (vfsystems)
../fir_bsp/\libucosii_bsp.a(vfsport.o)
                              ../fir_bsp/\libucosii_bsp.a(allports.o) (prep_vfs)
../fir_bsp/\libucosii_bsp.a(alt_exception_entry.o)
                              ../fir_bsp/\libucosii_bsp.a(alt_irq_entry.o) (alt_exception)
../fir_bsp/\libucosii_bsp.a(alt_fcntl.o)
                              ../fir_bsp/\libucosii_bsp.a(alt_iniche_fcntl.o) (alt_fcntl)
../fir_bsp/\libucosii_bsp.a(alt_find_file.o)
                              ../fir_bsp/\libucosii_bsp.a(alt_open.o) (alt_find_file)
../fir_bsp/\libucosii_bsp.a(alt_get_fd.o)
                              ../fir_bsp/\libucosii_bsp.a(alt_open.o) (alt_get_fd)
../fir_bsp/\libucosii_bsp.a(timeouts.o)
                              ../fir_bsp/\libucosii_bsp.a(netmain.o) (inet_timer)
../fir_bsp/\libucosii_bsp.a(icmp.o)
                              ../fir_bsp/\libucosii_bsp.a(ipdemux.o) (icmprcv)
../fir_bsp/\libucosii_bsp.a(ip_reasm.o)
                              ../fir_bsp/\libucosii_bsp.a(timeouts.o) (ire_cticks)
d:/altera/13.0sp1/nios2eds/bin/gnu/h-i686-mingw32/bin/../lib/gcc/nios2-elf/4.1.2/../../../../nios2-elf/lib\libc.a(lib_a-atexit.o)
                              ../fir_bsp/\libucosii_bsp.a(alt_main.o) (atexit)
d:/altera/13.0sp1/nios2eds/bin/gnu/h-i686-mingw32/bin/../lib/gcc/nios2-elf/4.1.2/../../../../nios2-elf/lib\libc.a(lib_a-atoi.o)
                              ../fir_bsp/\libucosii_bsp.a(parseip.o) (atoi)
d:/altera/13.0sp1/nios2eds/bin/gnu/h-i686-mingw32/bin/../lib/gcc/nios2-elf/4.1.2/../../../../nios2-elf/lib\libc.a(lib_a-calloc.o)
                              ../fir_bsp/\libucosii_bsp.a(targnios.o) (calloc)
d:/altera/13.0sp1/nios2eds/bin/gnu/h-i686-mingw32/bin/../lib/gcc/nios2-elf/4.1.2/../../../../nios2-elf/lib\libc.a(lib_a-memcmp.o)
                              ../fir_bsp/\libucosii_bsp.a(altera_avalon_cfi_flash.o) (memcmp)
d:/altera/13.0sp1/nios2eds/bin/gnu/h-i686-mingw32/bin/../lib/gcc/nios2-elf/4.1.2/../../../../nios2-elf/lib\libc.a(lib_a-sprintf.o)
                              ../fir_bsp/\libucosii_bsp.a(in_utils.o) (sprintf)
d:/altera/13.0sp1/nios2eds/bin/gnu/h-i686-mingw32/bin/../lib/gcc/nios2-elf/4.1.2/../../../../nios2-elf/lib\libc.a(lib_a-strcpy.o)
                              ../fir_bsp/\libucosii_bsp.a(parseip.o) (strcpy)
d:/altera/13.0sp1/nios2eds/bin/gnu/h-i686-mingw32/bin/../lib/gcc/nios2-elf/4.1.2/../../../../nios2-elf/lib\libc.a(lib_a-strncmp.o)
                              ../fir_bsp/\libucosii_bsp.a(vfsfiles.o) (strncmp)
d:/altera/13.0sp1/nios2eds/bin/gnu/h-i686-mingw32/bin/../lib/gcc/nios2-elf/4.1.2/../../../../nios2-elf/lib\libc.a(lib_a-strncpy.o)
                              ../fir_bsp/\libucosii_bsp.a(dhcpclnt.o) (strncpy)
d:/altera/13.0sp1/nios2eds/bin/gnu/h-i686-mingw32/bin/../lib/gcc/nios2-elf/4.1.2/../../../../nios2-elf/lib\libc.a(lib_a-strtol.o)
                              d:/altera/13.0sp1/nios2eds/bin/gnu/h-i686-mingw32/bin/../lib/gcc/nios2-elf/4.1.2/../../../../nios2-elf/lib\libc.a(lib_a-atoi.o) (_strtol_r)
d:/altera/13.0sp1/nios2eds/bin/gnu/h-i686-mingw32/bin/../lib/gcc/nios2-elf/4.1.2/../../../../nios2-elf/lib\libc.a(lib_a-vprintf.o)
                              ../fir_bsp/\libucosii_bsp.a(in_utils.o) (vprintf)
d:/altera/13.0sp1/nios2eds/bin/gnu/h-i686-mingw32/bin/../lib/gcc/nios2-elf/4.1.2/../../../../nios2-elf/lib\libc.a(lib_a-vsprintf.o)
                              ../fir_bsp/\libucosii_bsp.a(in_utils.o) (vsprintf)
d:/altera/13.0sp1/nios2eds/bin/gnu/h-i686-mingw32/bin/../lib/gcc/nios2-elf/4.1.2/../../../../nios2-elf/lib\libc.a(lib_a-__atexit.o)
                              d:/altera/13.0sp1/nios2eds/bin/gnu/h-i686-mingw32/bin/../lib/gcc/nios2-elf/4.1.2/../../../../nios2-elf/lib\libc.a(lib_a-atexit.o) (__register_exitproc)

Allocating common symbols
Common symbol       size              file

soq                 0x14              ../fir_bsp/\libucosii_bsp.a(nptcp.o)
alt_irq             0x100             ../fir_bsp/\libucosii_bsp.a(alt_irq_handler.o)
tcp_optionbuf       0x4               ../fir_bsp/\libucosii_bsp.a(tcp_out.o)
last_flash_sector_offset
                    0x4               obj/default/SSS_DE2_115.o
rt_mib              0x4               ../fir_bsp/\libucosii_bsp.a(ip.o)
so_evtmap_create    0x4               ../fir_bsp/\libucosii_bsp.a(ipport.o)
SSSLEDCommandQ      0x4               obj/default/simple_socket_server.o
OSLockNesting       0x1               ../fir_bsp/\libucosii_bsp.a(os_core.o)
tcb                 0x2c              ../fir_bsp/\libucosii_bsp.a(tcp_subr.o)
OSRunning           0x1               ../fir_bsp/\libucosii_bsp.a(os_core.o)
dhc_states          0xf0              ../fir_bsp/\libucosii_bsp.a(dhcpclnt.o)
tcpstat             0xe0              ../fir_bsp/\libucosii_bsp.a(tcp_subr.o)
OSIdleCtr           0x4               ../fir_bsp/\libucosii_bsp.a(os_core.o)
SSSLEDLightshowSem  0x4               obj/default/simple_socket_server.o
udp_mib             0x10              ../fir_bsp/\libucosii_bsp.a(udp.o)
to_netmain          0x1               ../fir_bsp/\libucosii_bsp.a(netmain.o)
OSPrioHighRdy       0x1               ../fir_bsp/\libucosii_bsp.a(os_core.o)
errno               0x4               d:/altera/13.0sp1/nios2eds/bin/gnu/h-i686-mingw32/bin/../lib/gcc/nios2-elf/4.1.2/../../../../nios2-elf/lib\libc.a(lib_a-int_errno.o)
lilfreeq            0x14              ../fir_bsp/\libucosii_bsp.a(pktalloc.o)
icmp_mib            0x68              ../fir_bsp/\libucosii_bsp.a(icmp.o)
resid_semaphore     0x40              ../fir_bsp/\libucosii_bsp.a(targnios.o)
alt_heapsem         0x4               ../fir_bsp/\libucosii_bsp.a(alt_malloc_lock.o)
OSFlagTbl           0x370             ../fir_bsp/\libucosii_bsp.a(os_core.o)
mbstat              0x8               ../fir_bsp/\libucosii_bsp.a(nptcp.o)
netq_intmask        0x4               ../fir_bsp/\libucosii_bsp.a(osportco.o)
select_wait         0x2               ../fir_bsp/\libucosii_bsp.a(nptcp.o)
tcpmib              0x3c              ../fir_bsp/\libucosii_bsp.a(nptcp.o)
OSPrioCur           0x1               ../fir_bsp/\libucosii_bsp.a(os_core.o)
mheap_sem_ptr       0x4               ../fir_bsp/\libucosii_bsp.a(targnios.o)
netlist             0x14              ../fir_bsp/\libucosii_bsp.a(iface.o)
mbufq               0x14              ../fir_bsp/\libucosii_bsp.a(nptcp.o)
OSTCBList           0x4               ../fir_bsp/\libucosii_bsp.a(os_core.o)
alt_fd_list_lock    0x4               ../fir_bsp/\libucosii_bsp.a(alt_dev.o)
OSMemTbl            0xc30             ../fir_bsp/\libucosii_bsp.a(os_core.o)
OSTickStepState     0x1               ../fir_bsp/\libucosii_bsp.a(os_core.o)
OSTaskStatStk       0x800             ../fir_bsp/\libucosii_bsp.a(os_core.o)
OSCtxSwCtr          0x4               ../fir_bsp/\libucosii_bsp.a(os_core.o)
igmpstats           0x64              ../fir_bsp/\libucosii_bsp.a(igmp_cmn.o)
ire_stats           0x18              ../fir_bsp/\libucosii_bsp.a(ip_reasm.o)
old_mode            0x4               ../fir_bsp/\libucosii_bsp.a(osportco.o)
vfs_dir_stale       0x4               ../fir_bsp/\libucosii_bsp.a(vfsfiles.o)
cticks_factor       0x4               ../fir_bsp/\libucosii_bsp.a(brdutils.o)
g_dm9ka             0x44              obj/default/dm9000a.o
OSIdleCtrMax        0x4               ../fir_bsp/\libucosii_bsp.a(os_core.o)
memestats           0x10              ../fir_bsp/\libucosii_bsp.a(pktalloc.o)
intimers            0x64              ../fir_bsp/\libucosii_bsp.a(timeouts.o)
OSTCBFreeList       0x4               ../fir_bsp/\libucosii_bsp.a(os_core.o)
global_TCPwakeup_setIndx
                    0x4               ../fir_bsp/\libucosii_bsp.a(osportco.o)
SSSInitialTaskStk   0x2000            obj/default/iniche_init.o
rcvdq               0x14              ../fir_bsp/\libucosii_bsp.a(ipnet.o)
global_tcb_ext      0xfc              ../fir_bsp/\libucosii_bsp.a(osportco.o)
netstatic           0x300             ../fir_bsp/\libucosii_bsp.a(ipstart.o)
tcp_maxidle         0x4               ../fir_bsp/\libucosii_bsp.a(tcp_timr.o)
LED7SegLightshowTaskStk
                    0x2000            obj/default/simple_socket_server.o
OSCPUUsage          0x1               ../fir_bsp/\libucosii_bsp.a(os_core.o)
nets                0x10              ../fir_bsp/\libucosii_bsp.a(ipstart.o)
pktlog              0xf0              ../fir_bsp/\libucosii_bsp.a(pktalloc.o)
OSTaskCtr           0x1               ../fir_bsp/\libucosii_bsp.a(os_core.o)
SSSLEDEventFlag     0x4               obj/default/simple_socket_server.o
OSMemFreeList       0x4               ../fir_bsp/\libucosii_bsp.a(os_core.o)
vfs_open_files      0x4               ../fir_bsp/\libucosii_bsp.a(vfsfiles.o)
cticks              0x4               ../fir_bsp/\libucosii_bsp.a(osportco.o)
to_nettick          0x1               ../fir_bsp/\libucosii_bsp.a(netmain.o)
last_flash_sector   0x4               obj/default/SSS_DE2_115.o
OSQTbl              0x1e0             ../fir_bsp/\libucosii_bsp.a(os_core.o)
OSTCBHighRdy        0x4               ../fir_bsp/\libucosii_bsp.a(os_core.o)
OSQFreeList         0x4               ../fir_bsp/\libucosii_bsp.a(os_core.o)
OSRdyGrp            0x1               ../fir_bsp/\libucosii_bsp.a(os_core.o)
ip_mib              0x50              ../fir_bsp/\libucosii_bsp.a(ip.o)
SSSLEDCommandQTbl   0x78              obj/default/simple_socket_server.o
OS_TPS              0x4               ../fir_bsp/\libucosii_bsp.a(brdutils.o)
_atexit0            0x190             d:/altera/13.0sp1/nios2eds/bin/gnu/h-i686-mingw32/bin/../lib/gcc/nios2-elf/4.1.2/../../../../nios2-elf/lib\libc.a(lib_a-atexit.o)
OSRdyTbl            0x3               ../fir_bsp/\libucosii_bsp.a(os_core.o)
igmp_all_hosts_group
                    0x4               ../fir_bsp/\libucosii_bsp.a(igmp_cmn.o)
eth_prt_buf         0x12              ../fir_bsp/\libucosii_bsp.a(in_utils.o)
app_semaphore       0x18              ../fir_bsp/\libucosii_bsp.a(targnios.o)
LEDManagementTaskStk
                    0x2000            obj/default/simple_socket_server.o
rcvdq_sem_ptr       0x4               ../fir_bsp/\libucosii_bsp.a(targnios.o)
OSEventFreeList     0x4               ../fir_bsp/\libucosii_bsp.a(os_core.o)
mfreeq              0x14              ../fir_bsp/\libucosii_bsp.a(nptcp.o)
to_ssstask          0x1               obj/default/iniche_init.o
global_TCPwakeup_set
                    0xf0              ../fir_bsp/\libucosii_bsp.a(osportco.o)
bigfreeq            0x14              ../fir_bsp/\libucosii_bsp.a(pktalloc.o)
so_evtmap_delete    0x4               ../fir_bsp/\libucosii_bsp.a(ipport.o)
tcp_saveti          0x28              ../fir_bsp/\libucosii_bsp.a(tcp_in.o)
OSIntNesting        0x1               ../fir_bsp/\libucosii_bsp.a(os_core.o)
so_evtmap           0x1               ../fir_bsp/\libucosii_bsp.a(ipport.o)
OSTCBCur            0x4               ../fir_bsp/\libucosii_bsp.a(os_core.o)
arp_table           0x100             ../fir_bsp/\libucosii_bsp.a(et_arp.o)
tcp_iss             0x4               ../fir_bsp/\libucosii_bsp.a(tcp_timr.o)
vfs_total_rw_space  0x4               ../fir_bsp/\libucosii_bsp.a(vfsfiles.o)
OSTime              0x4               ../fir_bsp/\libucosii_bsp.a(os_core.o)
OSTaskIdleStk       0x800             ../fir_bsp/\libucosii_bsp.a(os_core.o)
OSEventTbl          0xb40             ../fir_bsp/\libucosii_bsp.a(os_core.o)
vfs_total_dyna_files
                    0x4               ../fir_bsp/\libucosii_bsp.a(vfsfiles.o)
OSTCBTbl            0x510             ../fir_bsp/\libucosii_bsp.a(os_core.o)
ipreturn            0x12              ../fir_bsp/\libucosii_bsp.a(in_utils.o)
OSFlagFreeList      0x4               ../fir_bsp/\libucosii_bsp.a(os_core.o)
dropline            0x4               ../fir_bsp/\libucosii_bsp.a(tcp_in.o)
OSStatRdy           0x1               ../fir_bsp/\libucosii_bsp.a(os_core.o)
OSTCBPrioTbl        0x54              ../fir_bsp/\libucosii_bsp.a(os_core.o)
igmp_all_rtrs_group
                    0x4               ../fir_bsp/\libucosii_bsp.a(igmp_cmn.o)
alt_envsem          0x4               ../fir_bsp/\libucosii_bsp.a(alt_env_lock.o)
OSIdleCtrRun        0x4               ../fir_bsp/\libucosii_bsp.a(os_core.o)

Memory Configuration

Name             Origin             Length             Attributes
sdram_0_BEFORE_EXCEPTION 0x00800000         0x00000020
sdram_0          0x00800020         0x007fffe0
reset            0x01400000         0x00000020
cfi_flash_0      0x01400020         0x003fffe0
sram_0           0x01a00000         0x00080000
epcs_controller  0x01a81800         0x00000800
*default*        0x00000000         0xffffffff

Linker script and memory map

LOAD ../fir_bsp//obj/HAL/src/crt0.o
LOAD obj/default/LCD.o
LOAD obj/default/SSS_DE2_115.o
LOAD obj/default/alt_error_handler.o
LOAD obj/default/dm9000a.o
LOAD obj/default/iniche_init.o
LOAD obj/default/led.o
LOAD obj/default/network_utilities.o
LOAD obj/default/simple_socket_server.o
LOAD obj/default/tse_my_system.o
LOAD d:/altera/13.0sp1/nios2eds/bin/gnu/h-i686-mingw32/bin/../lib/gcc/nios2-elf/4.1.2/../../../../nios2-elf/lib\libstdc++.a
LOAD d:/altera/13.0sp1/nios2eds/bin/gnu/h-i686-mingw32/bin/../lib/gcc/nios2-elf/4.1.2/../../../../nios2-elf/lib\libm.a
LOAD d:/altera/13.0sp1/nios2eds/bin/gnu/h-i686-mingw32/bin/../lib/gcc/nios2-elf/4.1.2\libgcc.a
START GROUP
LOAD d:/altera/13.0sp1/nios2eds/bin/gnu/h-i686-mingw32/bin/../lib/gcc/nios2-elf/4.1.2/../../../../nios2-elf/lib\libc.a
LOAD d:/altera/13.0sp1/nios2eds/bin/gnu/h-i686-mingw32/bin/../lib/gcc/nios2-elf/4.1.2\libgcc.a
LOAD ../fir_bsp/\libucosii_bsp.a
END GROUP
LOAD d:/altera/13.0sp1/nios2eds/bin/gnu/h-i686-mingw32/bin/../lib/gcc/nios2-elf/4.1.2\libgcc.a
                0x00800000                __alt_mem_sdram_0 = 0x800000
                0x01400000                __alt_mem_cfi_flash_0 = 0x1400000
                0x01a00000                __alt_mem_sram_0 = 0x1a00000
                0x01a81800                __alt_mem_epcs_controller = 0x1a81800

.entry          0x01400000        0x0
 *(.entry)
 .entry         0x01400000        0x0 ../fir_bsp//obj/HAL/src/crt0.o
                0x01400000                __reset

.exceptions     0x00800020      0x19c
                0x00800020                PROVIDE (__ram_exceptions_start, ABSOLUTE (.))
                0x00800020                . = ALIGN (0x20)
 *(.irq)
 *(.exceptions.entry.label)
 .exceptions.entry.label
                0x00800020        0x0 ../fir_bsp/\libucosii_bsp.a(alt_irq_entry.o)
                0x00800020                alt_irq_entry
 .exceptions.entry.label
                0x00800020        0x0 ../fir_bsp/\libucosii_bsp.a(alt_exception_entry.o)
                0x00800020                alt_exception
 *(.exceptions.entry.user)
 *(.exceptions.entry)
 .exceptions.entry
                0x00800020       0x54 ../fir_bsp/\libucosii_bsp.a(alt_exception_entry.o)
 *(.exceptions.irqtest.user)
 *(.exceptions.irqtest)
 .exceptions.irqtest
                0x00800074       0x10 ../fir_bsp/\libucosii_bsp.a(alt_irq_entry.o)
 *(.exceptions.irqhandler.user)
 *(.exceptions.irqhandler)
 .exceptions.irqhandler
                0x00800084        0x4 ../fir_bsp/\libucosii_bsp.a(alt_irq_entry.o)
 *(.exceptions.irqreturn.user)
 *(.exceptions.irqreturn)
 .exceptions.irqreturn
                0x00800088        0x4 ../fir_bsp/\libucosii_bsp.a(alt_irq_entry.o)
 *(.exceptions.notirq.label)
 .exceptions.notirq.label
                0x0080008c        0x0 ../fir_bsp/\libucosii_bsp.a(alt_irq_entry.o)
 *(.exceptions.notirq.user)
 *(.exceptions.notirq)
 .exceptions.notirq
                0x0080008c        0x8 ../fir_bsp/\libucosii_bsp.a(alt_exception_entry.o)
 *(.exceptions.soft.user)
 *(.exceptions.soft)
 *(.exceptions.unknown.user)
 *(.exceptions.unknown)
 .exceptions.unknown
                0x00800094        0x4 ../fir_bsp/\libucosii_bsp.a(alt_exception_entry.o)
 *(.exceptions.exit.label)
 .exceptions.exit.label
                0x00800098        0x0 ../fir_bsp/\libucosii_bsp.a(alt_irq_entry.o)
 .exceptions.exit.label
                0x00800098        0x0 ../fir_bsp/\libucosii_bsp.a(alt_exception_entry.o)
 *(.exceptions.exit.user)
 *(.exceptions.exit)
 .exceptions.exit
                0x00800098       0x54 ../fir_bsp/\libucosii_bsp.a(alt_exception_entry.o)
 *(.exceptions)
 .exceptions    0x008000ec       0xd0 ../fir_bsp/\libucosii_bsp.a(alt_irq_handler.o)
                0x008000ec                alt_irq_handler
                0x008001bc                PROVIDE (__ram_exceptions_end, ABSOLUTE (.))
                0x00800020                PROVIDE (__flash_exceptions_start, LOADADDR (.exceptions))

.text           0x008001bc    0x46d98
                0x008001bc                PROVIDE (stext, ABSOLUTE (.))
 *(.interp)
 *(.hash)
 *(.dynsym)
 *(.dynstr)
 *(.gnu.version)
 *(.gnu.version_d)
 *(.gnu.version_r)
 *(.rel.init)
 *(.rela.init)
 *(.rel.text .rel.text.* .rel.gnu.linkonce.t.*)
 *(.rela.text .rela.text.* .rela.gnu.linkonce.t.*)
 *(.rel.fini)
 *(.rela.fini)
 *(.rel.rodata .rel.rodata.* .rel.gnu.linkonce.r.*)
 *(.rela.rodata .rela.rodata.* .rela.gnu.linkonce.r.*)
 *(.rel.data .rel.data.* .rel.gnu.linkonce.d.*)
 *(.rela.data .rela.data.* .rela.gnu.linkonce.d.*)
 *(.rel.tdata .rel.tdata.* .rel.gnu.linkonce.td.*)
 *(.rela.tdata .rela.tdata.* .rela.gnu.linkonce.td.*)
 *(.rel.tbss .rel.tbss.* .rel.gnu.linkonce.tb.*)
 *(.rela.tbss .rela.tbss.* .rela.gnu.linkonce.tb.*)
 *(.rel.ctors)
 *(.rela.ctors)
 *(.rel.dtors)
 *(.rela.dtors)
 *(.rel.got)
 *(.rela.got)
 *(.rel.sdata .rel.sdata.* .rel.gnu.linkonce.s.*)
 *(.rela.sdata .rela.sdata.* .rela.gnu.linkonce.s.*)
 *(.rel.sbss .rel.sbss.* .rel.gnu.linkonce.sb.*)
 *(.rela.sbss .rela.sbss.* .rela.gnu.linkonce.sb.*)
 *(.rel.sdata2 .rel.sdata2.* .rel.gnu.linkonce.s2.*)
 *(.rela.sdata2 .rela.sdata2.* .rela.gnu.linkonce.s2.*)
 *(.rel.sbss2 .rel.sbss2.* .rel.gnu.linkonce.sb2.*)
 *(.rela.sbss2 .rela.sbss2.* .rela.gnu.linkonce.sb2.*)
 *(.rel.bss .rel.bss.* .rel.gnu.linkonce.b.*)
 *(.rela.bss .rela.bss.* .rela.gnu.linkonce.b.*)
 *(.rel.plt)
 *(.rela.plt)
 *(.rel.dyn)
 *(.init)
 *(.plt)
 *(.text .stub .text.* .gnu.linkonce.t.*)
 .text          0x008001bc       0x48 ../fir_bsp//obj/HAL/src/crt0.o
                0x008001bc                _start
 .text          0x00800204      0x31c obj/default/LCD.o
                0x00800204                LCD_Init
                0x008002a0                LCD_Show_Text
                0x00800328                LCD_Line2
                0x00800364                LCD_Line1
                0x008003a0                LCD_Clear
                0x008003dc                LCD_Test
 .text          0x00800520      0x2ec obj/default/SSS_DE2_115.o
                0x00800520                get_DE2_115_mac_addr
                0x008006c8                FindLastFlashSectorOffset
 .text          0x0080080c      0xba8 obj/default/alt_error_handler.o
                0x0080080c                alt_uCOSIIErrorHandler
                0x00800e30                alt_NetworkErrorHandler
                0x008010c8                alt_SSSErrorHandler
 .text          0x008013b4      0xe48 obj/default/dm9000a.o
                0x008013b4                dm9000a_iow
                0x00801408                dm9000a_ior
                0x00801454                phy_write
                0x008014f0                dm9000a_reset
                0x008016b4                TransmitPacket
                0x008017d0                prep_dm9000a
                0x008019ec                dm9000a_init
                0x00801e3c                dm9Ka_isr_wrap
                0x00801e7c                dm9ka_init
                0x00801f74                dm9ka_close
                0x00802084                dm9ka_stats
                0x008020e0                dm9ka_pkt_send
 .text          0x008021fc      0x488 obj/default/iniche_init.o
                0x008021fc                SSSInitialTask
                0x008022d8                main
                0x008023d4                str_length
                0x00802434                binaryTodecimal
                0x008024d8                decimal_to_binary
                0x008025c4                disp_7seg
 .text          0x00802684      0x324 obj/default/led.o
                0x00802684                led_bit_toggle
                0x00802750                LED7SegLightshowTask
                0x008027c4                LEDManagementTask
 .text          0x008029a8      0x73c obj/default/network_utilities.o
                0x008029a8                get_mac_addr
                0x00802a00                get_ip_addr
                0x00802a6c                get_serial_number
                0x00802c48                generate_and_store_mac_addr
                0x00802e14                generate_mac_addr
                0x00802f50                get_board_mac_addr
 .text          0x008030e4      0x9f8 obj/default/simple_socket_server.o
                0x008030e4                SSSCreateOSDataStructs
                0x0080318c                SSSCreateTasks
                0x00803250                sss_reset_connection
                0x008032c0                sss_send_menu
                0x00803450                sss_handle_accept
                0x00803510                sss_exec_command
                0x00803684                sss_handle_receive
                0x00803870                SSSSimpleSocketServerTask
 .text          0x00803adc        0x0 obj/default/tse_my_system.o
 .text          0x00803adc       0xa4 d:/altera/13.0sp1/nios2eds/bin/gnu/h-i686-mingw32/bin/../lib/gcc/nios2-elf/4.1.2\libgcc.a(_fixunsdfsi.o)
                0x00803adc                __fixunsdfsi
 .text          0x00803b80      0x504 d:/altera/13.0sp1/nios2eds/bin/gnu/h-i686-mingw32/bin/../lib/gcc/nios2-elf/4.1.2\libgcc.a(_addsub_df.o)
                0x00803f90                __subdf3
                0x00804010                __adddf3
 .text          0x00804084      0x3c4 d:/altera/13.0sp1/nios2eds/bin/gnu/h-i686-mingw32/bin/../lib/gcc/nios2-elf/4.1.2\libgcc.a(_mul_df.o)
                0x00804084                __muldf3
 .text          0x00804448       0x88 d:/altera/13.0sp1/nios2eds/bin/gnu/h-i686-mingw32/bin/../lib/gcc/nios2-elf/4.1.2\libgcc.a(_ge_df.o)
                0x00804448                __gedf2
 .text          0x008044d0       0xd8 d:/altera/13.0sp1/nios2eds/bin/gnu/h-i686-mingw32/bin/../lib/gcc/nios2-elf/4.1.2\libgcc.a(_df_to_si.o)
                0x008044d0                __fixdfsi
 .text          0x008045a8        0x0 d:/altera/13.0sp1/nios2eds/bin/gnu/h-i686-mingw32/bin/../lib/gcc/nios2-elf/4.1.2\libgcc.a(_thenan_df.o)
 .text          0x008045a8      0x194 d:/altera/13.0sp1/nios2eds/bin/gnu/h-i686-mingw32/bin/../lib/gcc/nios2-elf/4.1.2\libgcc.a(_usi_to_df.o)
                0x008045a8                __floatunsidf
 .text          0x0080473c       0x98 d:/altera/13.0sp1/nios2eds/bin/gnu/h-i686-mingw32/bin/../lib/gcc/nios2-elf/4.1.2\libgcc.a(_muldi3.o)
                0x0080473c                __muldi3
 .text          0x008047d4       0x80 d:/altera/13.0sp1/nios2eds/bin/gnu/h-i686-mingw32/bin/../lib/gcc/nios2-elf/4.1.2\libgcc.a(_clzsi2.o)
                0x008047d4                __clzsi2
 .text          0x00804854      0x314 d:/altera/13.0sp1/nios2eds/bin/gnu/h-i686-mingw32/bin/../lib/gcc/nios2-elf/4.1.2\libgcc.a(_pack_df.o)
                0x00804854                __pack_d
 .text          0x00804b68      0x138 d:/altera/13.0sp1/nios2eds/bin/gnu/h-i686-mingw32/bin/../lib/gcc/nios2-elf/4.1.2\libgcc.a(_unpack_df.o)
                0x00804b68                __unpack_d
 .text          0x00804ca0       0xc8 d:/altera/13.0sp1/nios2eds/bin/gnu/h-i686-mingw32/bin/../lib/gcc/nios2-elf/4.1.2\libgcc.a(_fpcmp_parts_df.o)
                0x00804ca0                __fpcmp_parts_d
 .text          0x00804d68        0x0 d:/altera/13.0sp1/nios2eds/bin/gnu/h-i686-mingw32/bin/../lib/gcc/nios2-elf/4.1.2\libgcc.a(_clz.o)
 .text          0x00804d68        0x0 d:/altera/13.0sp1/nios2eds/bin/gnu/h-i686-mingw32/bin/../lib/gcc/nios2-elf/4.1.2/../../../../nios2-elf/lib\libc.a(lib_a-ctype_.o)
 .text          0x00804d68       0x38 d:/altera/13.0sp1/nios2eds/bin/gnu/h-i686-mingw32/bin/../lib/gcc/nios2-elf/4.1.2/../../../../nios2-elf/lib\libc.a(lib_a-exit.o)
                0x00804d68                exit
 .text          0x00804da0       0x60 d:/altera/13.0sp1/nios2eds/bin/gnu/h-i686-mingw32/bin/../lib/gcc/nios2-elf/4.1.2/../../../../nios2-elf/lib\libc.a(lib_a-fprintf.o)
                0x00804da0                fprintf
                0x00804dcc                _fprintf_r
 .text          0x00804e00       0xdc d:/altera/13.0sp1/nios2eds/bin/gnu/h-i686-mingw32/bin/../lib/gcc/nios2-elf/4.1.2/../../../../nios2-elf/lib\libc.a(lib_a-fwrite.o)
                0x00804e00                _fwrite_r
                0x00804e9c                fwrite
 .text          0x00804edc      0x128 d:/altera/13.0sp1/nios2eds/bin/gnu/h-i686-mingw32/bin/../lib/gcc/nios2-elf/4.1.2/../../../../nios2-elf/lib\libc.a(lib_a-getc.o)
                0x00804edc                getc
                0x00804f74                _getc_r
 .text          0x00805004        0x0 d:/altera/13.0sp1/nios2eds/bin/gnu/h-i686-mingw32/bin/../lib/gcc/nios2-elf/4.1.2/../../../../nios2-elf/lib\libc.a(lib_a-impure.o)
 .text          0x00805004       0x28 d:/altera/13.0sp1/nios2eds/bin/gnu/h-i686-mingw32/bin/../lib/gcc/nios2-elf/4.1.2/../../../../nios2-elf/lib\libc.a(lib_a-malloc.o)
                0x00805004                free
                0x00805018                malloc
 .text          0x0080502c      0x740 d:/altera/13.0sp1/nios2eds/bin/gnu/h-i686-mingw32/bin/../lib/gcc/nios2-elf/4.1.2/../../../../nios2-elf/lib\libc.a(lib_a-mallocr.o)
                0x0080502c                _malloc_r
 .text          0x0080576c       0xa0 d:/altera/13.0sp1/nios2eds/bin/gnu/h-i686-mingw32/bin/../lib/gcc/nios2-elf/4.1.2/../../../../nios2-elf/lib\libc.a(lib_a-memcpy.o)
                0x0080576c                memcpy
 .text          0x0080580c       0xe0 d:/altera/13.0sp1/nios2eds/bin/gnu/h-i686-mingw32/bin/../lib/gcc/nios2-elf/4.1.2/../../../../nios2-elf/lib\libc.a(lib_a-memmove.o)
                0x0080580c                memmove
 .text          0x008058ec       0x98 d:/altera/13.0sp1/nios2eds/bin/gnu/h-i686-mingw32/bin/../lib/gcc/nios2-elf/4.1.2/../../../../nios2-elf/lib\libc.a(lib_a-memset.o)
                0x008058ec                memset
 .text          0x00805984       0x80 d:/altera/13.0sp1/nios2eds/bin/gnu/h-i686-mingw32/bin/../lib/gcc/nios2-elf/4.1.2/../../../../nios2-elf/lib\libc.a(lib_a-perror.o)
                0x00805984                _perror_r
                0x008059f0                perror
 .text          0x00805a04       0x78 d:/altera/13.0sp1/nios2eds/bin/gnu/h-i686-mingw32/bin/../lib/gcc/nios2-elf/4.1.2/../../../../nios2-elf/lib\libc.a(lib_a-printf.o)
                0x00805a04                printf
                0x00805a48                _printf_r
 .text          0x00805a7c      0x1ec d:/altera/13.0sp1/nios2eds/bin/gnu/h-i686-mingw32/bin/../lib/gcc/nios2-elf/4.1.2/../../../../nios2-elf/lib\libc.a(lib_a-putc.o)
                0x00805a7c                putc
                0x00805b80                _putc_r
 .text          0x00805c68       0x24 d:/altera/13.0sp1/nios2eds/bin/gnu/h-i686-mingw32/bin/../lib/gcc/nios2-elf/4.1.2/../../../../nios2-elf/lib\libc.a(lib_a-putchar.o)
                0x00805c68                putchar
                0x00805c84                _putchar_r
 .text          0x00805c8c       0xb4 d:/altera/13.0sp1/nios2eds/bin/gnu/h-i686-mingw32/bin/../lib/gcc/nios2-elf/4.1.2/../../../../nios2-elf/lib\libc.a(lib_a-puts.o)
                0x00805c8c                _puts_r
                0x00805d2c                puts
 .text          0x00805d40       0x60 d:/altera/13.0sp1/nios2eds/bin/gnu/h-i686-mingw32/bin/../lib/gcc/nios2-elf/4.1.2/../../../../nios2-elf/lib\libc.a(lib_a-rget.o)
                0x00805d40                __srget_r
                0x00805d8c                __srget
 .text          0x00805da0       0x70 d:/altera/13.0sp1/nios2eds/bin/gnu/h-i686-mingw32/bin/../lib/gcc/nios2-elf/4.1.2/../../../../nios2-elf/lib\libc.a(lib_a-sbrkr.o)
                0x00805da0                _sbrk_r
 .text          0x00805e10       0xe0 d:/altera/13.0sp1/nios2eds/bin/gnu/h-i686-mingw32/bin/../lib/gcc/nios2-elf/4.1.2/../../../../nios2-elf/lib\libc.a(lib_a-strchr.o)
                0x00805e10                strchr
 .text          0x00805ef0      0x674 d:/altera/13.0sp1/nios2eds/bin/gnu/h-i686-mingw32/bin/../lib/gcc/nios2-elf/4.1.2/../../../../nios2-elf/lib\libc.a(lib_a-strerror.o)
                0x00805ef0                strerror
 .text          0x00806564       0x74 d:/altera/13.0sp1/nios2eds/bin/gnu/h-i686-mingw32/bin/../lib/gcc/nios2-elf/4.1.2/../../../../nios2-elf/lib\libc.a(lib_a-strlen.o)
                0x00806564                strlen
 .text          0x008065d8        0x8 d:/altera/13.0sp1/nios2eds/bin/gnu/h-i686-mingw32/bin/../lib/gcc/nios2-elf/4.1.2/../../../../nios2-elf/lib\libc.a(lib_a-u_strerr.o)
                0x008065d8                _user_strerror
 .text          0x008065e0     0x1f28 d:/altera/13.0sp1/nios2eds/bin/gnu/h-i686-mingw32/bin/../lib/gcc/nios2-elf/4.1.2/../../../../nios2-elf/lib\libc.a(lib_a-vfprintf.o)
                0x00806638                ___vfprintf_internal_r
                0x008084e4                __vfprintf_internal
 .text          0x00808508      0x14c d:/altera/13.0sp1/nios2eds/bin/gnu/h-i686-mingw32/bin/../lib/gcc/nios2-elf/4.1.2/../../../../nios2-elf/lib\libc.a(lib_a-wbuf.o)
                0x00808508                __swbuf_r
                0x00808638                __swbuf
 .text          0x00808654      0x13c d:/altera/13.0sp1/nios2eds/bin/gnu/h-i686-mingw32/bin/../lib/gcc/nios2-elf/4.1.2/../../../../nios2-elf/lib\libc.a(lib_a-wsetup.o)
                0x00808654                __swsetup_r
 .text          0x00808790      0x1b4 d:/altera/13.0sp1/nios2eds/bin/gnu/h-i686-mingw32/bin/../lib/gcc/nios2-elf/4.1.2/../../../../nios2-elf/lib\libc.a(lib_a-__call_atexit.o)
                0x00808794                __call_exitprocs
 .text          0x00808944     0x17cc d:/altera/13.0sp1/nios2eds/bin/gnu/h-i686-mingw32/bin/../lib/gcc/nios2-elf/4.1.2/../../../../nios2-elf/lib\libc.a(lib_a-dtoa.o)
                0x00808b5c                _dtoa_r
 .text          0x0080a110      0x230 d:/altera/13.0sp1/nios2eds/bin/gnu/h-i686-mingw32/bin/../lib/gcc/nios2-elf/4.1.2/../../../../nios2-elf/lib\libc.a(lib_a-fflush.o)
                0x0080a110                _fflush_r
                0x0080a30c                fflush
 .text          0x0080a340      0x2c0 d:/altera/13.0sp1/nios2eds/bin/gnu/h-i686-mingw32/bin/../lib/gcc/nios2-elf/4.1.2/../../../../nios2-elf/lib\libc.a(lib_a-findfp.o)
                0x0080a398                __sfp_lock_acquire
                0x0080a39c                __sfp_lock_release
                0x0080a3a0                __sinit_lock_acquire
                0x0080a3a4                __sinit_lock_release
                0x0080a3a8                __sinit
                0x0080a45c                __fp_unlock_all
                0x0080a474                __fp_lock_all
                0x0080a48c                _cleanup_r
                0x0080a498                _cleanup
                0x0080a4a8                __sfmoreglue
                0x0080a510                __sfp
 .text          0x0080a600       0xbc d:/altera/13.0sp1/nios2eds/bin/gnu/h-i686-mingw32/bin/../lib/gcc/nios2-elf/4.1.2/../../../../nios2-elf/lib\libc.a(lib_a-fputc.o)
                0x0080a600                fputc
                0x0080a664                _fputc_r
 .text          0x0080a6bc       0x90 d:/altera/13.0sp1/nios2eds/bin/gnu/h-i686-mingw32/bin/../lib/gcc/nios2-elf/4.1.2/../../../../nios2-elf/lib\libc.a(lib_a-fputs.o)
                0x0080a6bc                _fputs_r
                0x0080a730                fputs
 .text          0x0080a74c      0x440 d:/altera/13.0sp1/nios2eds/bin/gnu/h-i686-mingw32/bin/../lib/gcc/nios2-elf/4.1.2/../../../../nios2-elf/lib\libc.a(lib_a-freer.o)
                0x0080a74c                _malloc_trim_r
                0x0080a878                _free_r
 .text          0x0080ab8c      0x49c d:/altera/13.0sp1/nios2eds/bin/gnu/h-i686-mingw32/bin/../lib/gcc/nios2-elf/4.1.2/../../../../nios2-elf/lib\libc.a(lib_a-fvwrite.o)
                0x0080ab8c                __sfvwrite_r
 .text          0x0080b028      0x180 d:/altera/13.0sp1/nios2eds/bin/gnu/h-i686-mingw32/bin/../lib/gcc/nios2-elf/4.1.2/../../../../nios2-elf/lib\libc.a(lib_a-fwalk.o)
                0x0080b028                _fwalk_reent
                0x0080b0f0                _fwalk
 .text          0x0080b1a8        0x0 d:/altera/13.0sp1/nios2eds/bin/gnu/h-i686-mingw32/bin/../lib/gcc/nios2-elf/4.1.2/../../../../nios2-elf/lib\libc.a(lib_a-int_errno.o)
 .text          0x0080b1a8       0xc4 d:/altera/13.0sp1/nios2eds/bin/gnu/h-i686-mingw32/bin/../lib/gcc/nios2-elf/4.1.2/../../../../nios2-elf/lib\libc.a(lib_a-locale.o)
                0x0080b1a8                __locale_charset
                0x0080b1b0                _localeconv_r
                0x0080b1bc                localeconv
                0x0080b1cc                _setlocale_r
                0x0080b250                setlocale
 .text          0x0080b26c      0x194 d:/altera/13.0sp1/nios2eds/bin/gnu/h-i686-mingw32/bin/../lib/gcc/nios2-elf/4.1.2/../../../../nios2-elf/lib\libc.a(lib_a-makebuf.o)
                0x0080b26c                __smakebuf_r
 .text          0x0080b400       0xe4 d:/altera/13.0sp1/nios2eds/bin/gnu/h-i686-mingw32/bin/../lib/gcc/nios2-elf/4.1.2/../../../../nios2-elf/lib\libc.a(lib_a-memchr.o)
                0x0080b400                memchr
 .text          0x0080b4e4      0xff4 d:/altera/13.0sp1/nios2eds/bin/gnu/h-i686-mingw32/bin/../lib/gcc/nios2-elf/4.1.2/../../../../nios2-elf/lib\libc.a(lib_a-mprec.o)
                0x0080b4e4                _Bfree
                0x0080b50c                __hi0bits
                0x0080b57c                __lo0bits
                0x0080b640                __mcmp
                0x0080b6a0                __ulp
                0x0080b720                __b2d
                0x0080b840                __ratio
                0x0080b8f0                _mprec_log10
                0x0080b984                __copybits
                0x0080b9dc                __any_on
                0x0080ba64                _Balloc
                0x0080bb20                __d2b
                0x0080bc9c                __mdiff
                0x0080be28                __lshift
                0x0080bf74                __multiply
                0x0080c15c                __i2b
                0x0080c198                __multadd
                0x0080c298                __pow5mult
                0x0080c3b8                __s2b
 .text          0x0080c4d8      0x5f4 d:/altera/13.0sp1/nios2eds/bin/gnu/h-i686-mingw32/bin/../lib/gcc/nios2-elf/4.1.2/../../../../nios2-elf/lib\libc.a(lib_a-reallocr.o)
                0x0080c4d8                _realloc_r
 .text          0x0080cacc      0x1e0 d:/altera/13.0sp1/nios2eds/bin/gnu/h-i686-mingw32/bin/../lib/gcc/nios2-elf/4.1.2/../../../../nios2-elf/lib\libc.a(lib_a-refill.o)
                0x0080cacc                __srefill_r
 .text          0x0080ccac       0x40 d:/altera/13.0sp1/nios2eds/bin/gnu/h-i686-mingw32/bin/../lib/gcc/nios2-elf/4.1.2/../../../../nios2-elf/lib\libc.a(lib_a-s_isinfd.o)
                0x0080ccac                __isinfd
 .text          0x0080ccec       0x30 d:/altera/13.0sp1/nios2eds/bin/gnu/h-i686-mingw32/bin/../lib/gcc/nios2-elf/4.1.2/../../../../nios2-elf/lib\libc.a(lib_a-s_isnand.o)
                0x0080ccec                __isnand
 .text          0x0080cd1c      0x14c d:/altera/13.0sp1/nios2eds/bin/gnu/h-i686-mingw32/bin/../lib/gcc/nios2-elf/4.1.2/../../../../nios2-elf/lib\libc.a(lib_a-stdio.o)
                0x0080cd1c                __sclose
                0x0080cd24                __sseek
                0x0080cd8c                __swrite
                0x0080ce08                __sread
 .text          0x0080ce68       0xbc d:/altera/13.0sp1/nios2eds/bin/gnu/h-i686-mingw32/bin/../lib/gcc/nios2-elf/4.1.2/../../../../nios2-elf/lib\libc.a(lib_a-strcmp.o)
                0x0080ce68                strcmp
 .text          0x0080cf24       0x78 d:/altera/13.0sp1/nios2eds/bin/gnu/h-i686-mingw32/bin/../lib/gcc/nios2-elf/4.1.2/../../../../nios2-elf/lib\libc.a(lib_a-writer.o)
                0x0080cf24                _write_r
 .text          0x0080cf9c       0xb4 d:/altera/13.0sp1/nios2eds/bin/gnu/h-i686-mingw32/bin/../lib/gcc/nios2-elf/4.1.2/../../../../nios2-elf/lib\libc.a(lib_a-callocr.o)
                0x0080cf9c                _calloc_r
 .text          0x0080d050       0x70 d:/altera/13.0sp1/nios2eds/bin/gnu/h-i686-mingw32/bin/../lib/gcc/nios2-elf/4.1.2/../../../../nios2-elf/lib\libc.a(lib_a-closer.o)
                0x0080d050                _close_r
 .text          0x0080d0c0      0x124 d:/altera/13.0sp1/nios2eds/bin/gnu/h-i686-mingw32/bin/../lib/gcc/nios2-elf/4.1.2/../../../../nios2-elf/lib\libc.a(lib_a-fclose.o)
                0x0080d0c0                _fclose_r
                0x0080d1d0                fclose
 .text          0x0080d1e4       0x74 d:/altera/13.0sp1/nios2eds/bin/gnu/h-i686-mingw32/bin/../lib/gcc/nios2-elf/4.1.2/../../../../nios2-elf/lib\libc.a(lib_a-fstatr.o)
                0x0080d1e4                _fstat_r
 .text          0x0080d258       0x70 d:/altera/13.0sp1/nios2eds/bin/gnu/h-i686-mingw32/bin/../lib/gcc/nios2-elf/4.1.2/../../../../nios2-elf/lib\libc.a(lib_a-isattyr.o)
                0x0080d258                _isatty_r
 .text          0x0080d2c8       0x78 d:/altera/13.0sp1/nios2eds/bin/gnu/h-i686-mingw32/bin/../lib/gcc/nios2-elf/4.1.2/../../../../nios2-elf/lib\libc.a(lib_a-lseekr.o)
                0x0080d2c8                _lseek_r
 .text          0x0080d340       0x78 d:/altera/13.0sp1/nios2eds/bin/gnu/h-i686-mingw32/bin/../lib/gcc/nios2-elf/4.1.2/../../../../nios2-elf/lib\libc.a(lib_a-readr.o)
                0x0080d340                _read_r
 .text          0x0080d3b8      0x5dc d:/altera/13.0sp1/nios2eds/bin/gnu/h-i686-mingw32/bin/../lib/gcc/nios2-elf/4.1.2\libgcc.a(_udivdi3.o)
                0x0080d3b8                __udivdi3
 .text          0x0080d994      0x5b0 d:/altera/13.0sp1/nios2eds/bin/gnu/h-i686-mingw32/bin/../lib/gcc/nios2-elf/4.1.2\libgcc.a(_umoddi3.o)
                0x0080d994                __umoddi3
 .text          0x0080df44      0x258 d:/altera/13.0sp1/nios2eds/bin/gnu/h-i686-mingw32/bin/../lib/gcc/nios2-elf/4.1.2\libgcc.a(_div_df.o)
                0x0080df44                __divdf3
 .text          0x0080e19c       0x88 d:/altera/13.0sp1/nios2eds/bin/gnu/h-i686-mingw32/bin/../lib/gcc/nios2-elf/4.1.2\libgcc.a(_eq_df.o)
                0x0080e19c                __eqdf2
 .text          0x0080e224       0x88 d:/altera/13.0sp1/nios2eds/bin/gnu/h-i686-mingw32/bin/../lib/gcc/nios2-elf/4.1.2\libgcc.a(_ne_df.o)
                0x0080e224                __nedf2
 .text          0x0080e2ac       0x88 d:/altera/13.0sp1/nios2eds/bin/gnu/h-i686-mingw32/bin/../lib/gcc/nios2-elf/4.1.2\libgcc.a(_gt_df.o)
                0x0080e2ac                __gtdf2
 .text          0x0080e334       0x88 d:/altera/13.0sp1/nios2eds/bin/gnu/h-i686-mingw32/bin/../lib/gcc/nios2-elf/4.1.2\libgcc.a(_lt_df.o)
                0x0080e334                __ltdf2
 .text          0x0080e3bc       0xf8 d:/altera/13.0sp1/nios2eds/bin/gnu/h-i686-mingw32/bin/../lib/gcc/nios2-elf/4.1.2\libgcc.a(_si_to_df.o)
                0x0080e3bc                __floatsidf
 .text          0x0080e4b4      0x14c d:/altera/13.0sp1/nios2eds/bin/gnu/h-i686-mingw32/bin/../lib/gcc/nios2-elf/4.1.2\libgcc.a(lib2-divmod.o)
                0x0080e530                __divsi3
                0x0080e590                __modsi3
                0x0080e5f0                __udivsi3
                0x0080e5f8                __umodsi3
 .text          0x0080e600       0x6c ../fir_bsp/\libucosii_bsp.a(alt_exit.o)
                0x0080e640                _exit
 .text          0x0080e66c       0xd0 ../fir_bsp/\libucosii_bsp.a(alt_flash_dev.o)
                0x0080e66c                alt_flash_open_dev
                0x0080e6e8                alt_flash_close_dev
 .text          0x0080e73c      0x134 ../fir_bsp/\libucosii_bsp.a(alt_fstat.o)
                0x0080e73c                fstat
 .text          0x0080e870      0x1c0 ../fir_bsp/\libucosii_bsp.a(alt_irq_register.o)
                0x0080e870                alt_irq_register
 .text          0x0080ea30        0x0 ../fir_bsp/\libucosii_bsp.a(alt_irq_vars.o)
 .text          0x0080ea30      0x120 ../fir_bsp/\libucosii_bsp.a(alt_isatty.o)
                0x0080ea30                isatty
 .text          0x0080eb50      0x150 ../fir_bsp/\libucosii_bsp.a(alt_lseek.o)
                0x0080eb50                lseek
 .text          0x0080eca0       0xc8 ../fir_bsp/\libucosii_bsp.a(alt_main.o)
                0x0080eca0                alt_main
 .text          0x0080ed68       0xbc ../fir_bsp/\libucosii_bsp.a(alt_sbrk.o)
                0x0080ed68                sbrk
 .text          0x0080ee24      0x118 ../fir_bsp/\libucosii_bsp.a(alt_usleep.o)
                0x0080ee24                usleep
 .text          0x0080ef3c      0x108 ../fir_bsp/\libucosii_bsp.a(alt_env_lock.o)
                0x0080ef3c                __env_lock
                0x0080efe8                __env_unlock
 .text          0x0080f044      0x1d8 ../fir_bsp/\libucosii_bsp.a(alt_malloc_lock.o)
                0x0080f044                __malloc_lock
                0x0080f14c                __malloc_unlock
 .text          0x0080f21c     0x2128 ../fir_bsp/\libucosii_bsp.a(os_core.o)
                0x0080f21c                OSEventNameGet
                0x0080f34c                OSEventNameSet
                0x0080f490                OSEventPendMulti
                0x0080fb44                OSInit
                0x0080fb98                OSIntEnter
                0x0080fc14                OSIntExit
                0x0080fd14                OSSchedLock
                0x0080fda0                OSSchedUnlock
                0x0080fe84                OSStart
                0x0080fef4                OSStatInit
                0x0080ffa0                OSTimeTick
                0x008101e0                OSVersion
                0x00810200                OS_Dummy
                0x0081021c                OS_EventTaskRdy
                0x008103b0                OS_EventTaskWait
                0x008104c0                OS_EventTaskWaitMulti
                0x00810614                OS_EventTaskRemove
                0x008106cc                OS_EventTaskRemoveMulti
                0x008107d0                OS_EventWaitListInit
                0x00810b9c                OS_MemClr
                0x00810bf0                OS_MemCopy
                0x00810c5c                OS_Sched
                0x00810da0                OS_StrCopy
                0x00810e20                OS_StrLen
                0x00810e78                OS_TaskIdle
                0x00810ed4                OS_TaskStat
                0x00810f9c                OS_TaskStatStkChk
                0x00811064                OS_TCBInit
 .text          0x00811344      0x18c ../fir_bsp/\libucosii_bsp.a(os_dbg.o)
                0x00811344                OSDebugInit
 .text          0x008114d0     0x193c ../fir_bsp/\libucosii_bsp.a(os_flag.o)
                0x008114d0                OSFlagAccept
                0x00811804                OSFlagCreate
                0x00811940                OSFlagDel
                0x00811be8                OSFlagNameGet
                0x00811d2c                OSFlagNameSet
                0x00811e80                OSFlagPend
                0x008124c4                OSFlagPendGetFlagsRdy
                0x0081252c                OSFlagPost
                0x008128d4                OSFlagQuery
                0x00812b6c                OS_FlagInit
                0x00812d60                OS_FlagUnlink
 .text          0x00812e0c      0x808 ../fir_bsp/\libucosii_bsp.a(os_mem.o)
                0x00812e0c                OSMemCreate
                0x00813028                OSMemGet
                0x0081312c                OSMemNameGet
                0x00813238                OSMemNameSet
                0x00813358                OSMemPut
                0x00813448                OSMemQuery
                0x00813544                OS_MemInit
 .text          0x00813614     0x1334 ../fir_bsp/\libucosii_bsp.a(os_q.o)
                0x00813614                OSQAccept
                0x00813768                OSQCreate
                0x0081397c                OSQDel
                0x00813c7c                OSQFlush
                0x00813d44                OSQPend
                0x00814064                OSQPendAbort
                0x008141e0                OSQPost
                0x00814360                OSQPostFront
                0x008144e8                OSQPostOpt
                0x0081471c                OSQQuery
                0x0081489c                OS_QInit
 .text          0x00814948      0xbc8 ../fir_bsp/\libucosii_bsp.a(os_sem.o)
                0x00814948                OSSemAccept
                0x00814a08                OSSemCreate
                0x00814b1c                OSSemDel
                0x00814dbc                OSSemPend
                0x00815038                OSSemPendAbort
                0x008151b4                OSSemPost
                0x008152dc                OSSemQuery
                0x0081540c                OSSemSet
 .text          0x00815510     0x1a40 ../fir_bsp/\libucosii_bsp.a(os_task.o)
                0x00815510                OSTaskChangePrio
                0x00815a84                OSTaskCreate
                0x00815c58                OSTaskCreateExt
                0x00815e58                OSTaskDel
                0x00816264                OSTaskDelReq
                0x008163d4                OSTaskNameGet
                0x0081658c                OSTaskNameSet
                0x00816750                OSTaskResume
                0x00816968                OSTaskStkChk
                0x00816b64                OSTaskSuspend
                0x00816d90                OSTaskQuery
                0x00816ed4                OS_TaskStkClr
 .text          0x00816f50      0x670 ../fir_bsp/\libucosii_bsp.a(os_time.o)
                0x00816f50                OSTimeDly
                0x0081709c                OSTimeDlyHMSM
                0x008172e8                OSTimeDlyResume
                0x008174f8                OSTimeGet
                0x0081755c                OSTimeSet
 .text          0x008175c0      0x118 ../fir_bsp/\libucosii_bsp.a(alt_sys_init.o)
                0x008175c0                alt_irq_init
                0x008175f4                alt_sys_init
 .text          0x008176d8      0x8c8 ../fir_bsp/\libucosii_bsp.a(altera_avalon_cfi_flash.o)
                0x008176d8                alt_flash_cfi_init
                0x008177ac                alt_flash_cfi_write
                0x00817a6c                alt_flash_cfi_get_info
                0x00817afc                alt_flash_cfi_read
                0x00817b64                alt_write_value_to_flash
                0x00817cc8                alt_flash_program_block
 .text          0x00817fa0     0x14a8 ../fir_bsp/\libucosii_bsp.a(altera_avalon_cfi_flash_table.o)
                0x00817fa0                alt_read_query_entry_8bit
                0x00817fe0                alt_read_query_entry_16bit
                0x00818024                alt_read_query_entry_32bit
                0x0081806c                alt_write_flash_command_8bit_device_8bit_mode
                0x008180a8                alt_write_flash_command_16bit_device_8bit_mode
                0x00818124                alt_write_flash_command_32bit_device_8bit_mode
                0x0081816c                alt_write_flash_command_16bit_device_16bit_mode
                0x008181b0                alt_write_flash_command_32bit_device_16bit_mode
                0x008181f8                alt_write_flash_command_32bit_device_32bit_mode
                0x00818240                alt_write_native_8bit
                0x00818274                alt_write_native_16bit
                0x008182a8                alt_write_native_32bit
                0x008182d8                alt_set_flash_width_func
                0x008184b8                alt_set_flash_algorithm_func
                0x008185e0                alt_read_cfi_table
                0x00818bc0                alt_read_cfi_width
                0x0081936c                alt_check_primary_table
 .text          0x00819448      0x9e4 ../fir_bsp/\libucosii_bsp.a(altera_avalon_epcs_flash_controller.o)
                0x00819448                alt_epcs_flash_init
                0x00819864                alt_epcs_flash_write
                0x00819ae4                alt_epcs_flash_get_info
                0x00819b74                alt_epcs_flash_erase_block
                0x00819c78                alt_epcs_flash_write_block
                0x00819d94                alt_epcs_flash_read
 .text          0x00819e2c      0x148 ../fir_bsp/\libucosii_bsp.a(altera_avalon_jtag_uart_fd.o)
                0x00819e2c                altera_avalon_jtag_uart_read_fd
                0x00819e84                altera_avalon_jtag_uart_write_fd
                0x00819edc                altera_avalon_jtag_uart_close_fd
                0x00819f24                altera_avalon_jtag_uart_ioctl_fd
 .text          0x00819f74      0x584 ../fir_bsp/\libucosii_bsp.a(altera_avalon_jtag_uart_init.o)
                0x00819f74                altera_avalon_jtag_uart_init
                0x0081a484                altera_avalon_jtag_uart_close
 .text          0x0081a4f8       0xf4 ../fir_bsp/\libucosii_bsp.a(altera_avalon_jtag_uart_ioctl.o)
                0x0081a4f8                altera_avalon_jtag_uart_ioctl
 .text          0x0081a5ec      0x2c0 ../fir_bsp/\libucosii_bsp.a(altera_avalon_jtag_uart_read.o)
                0x0081a5ec                altera_avalon_jtag_uart_read
 .text          0x0081a8ac      0x2dc ../fir_bsp/\libucosii_bsp.a(altera_avalon_jtag_uart_write.o)
                0x0081a8ac                altera_avalon_jtag_uart_write
 .text          0x0081ab88      0xf3c ../fir_bsp/\libucosii_bsp.a(altera_avalon_lcd_16207.o)
                0x0081b35c                altera_avalon_lcd_16207_write
                0x0081b960                altera_avalon_lcd_16207_init
 .text          0x0081bac4       0x58 ../fir_bsp/\libucosii_bsp.a(altera_avalon_lcd_16207_fd.o)
                0x0081bac4                altera_avalon_lcd_16207_write_fd
 .text          0x0081bb1c      0x100 ../fir_bsp/\libucosii_bsp.a(altera_avalon_timer_sc.o)
                0x0081bb8c                alt_avalon_timer_sc_init
 .text          0x0081bc1c       0xf8 ../fir_bsp/\libucosii_bsp.a(altera_avalon_uart_fd.o)
                0x0081bc1c                altera_avalon_uart_read_fd
                0x0081bc74                altera_avalon_uart_write_fd
                0x0081bccc                altera_avalon_uart_close_fd
 .text          0x0081bd14      0x57c ../fir_bsp/\libucosii_bsp.a(altera_avalon_uart_init.o)
                0x0081bd14                altera_avalon_uart_init
                0x0081c230                altera_avalon_uart_close
 .text          0x0081c290      0x310 ../fir_bsp/\libucosii_bsp.a(altera_avalon_uart_read.o)
                0x0081c290                altera_avalon_uart_read
 .text          0x0081c5a0      0x2a8 ../fir_bsp/\libucosii_bsp.a(altera_avalon_uart_write.o)
                0x0081c5a0                altera_avalon_uart_write
 .text          0x0081c848      0x6d4 ../fir_bsp/\libucosii_bsp.a(epcs_commands.o)
                0x0081c848                epcs_read_status_register
                0x0081c8a8                epcs_sector_erase
                0x0081ca10                epcs_read_buffer
                0x0081cb5c                epcs_write_enable
                0x0081cbac                epcs_write_status_register
                0x0081cc10                epcs_write_buffer
                0x0081cd80                epcs_read_electronic_signature
                0x0081cdec                epcs_read_device_id
                0x0081ce6c                epcs_enter_4_bytes_mode
                0x0081cec4                epcs_exit_4_bytes_mode
 .text          0x0081cf1c       0x54 ../fir_bsp/\libucosii_bsp.a(alt_iniche_close.o)
                0x0081cf1c                close
 .text          0x0081cf70      0x144 ../fir_bsp/\libucosii_bsp.a(alt_iniche_dev.o)
                0x0081cf70                iniche_devices_init
 .text          0x0081d0b4       0x78 ../fir_bsp/\libucosii_bsp.a(alt_iniche_read.o)
                0x0081d0b4                read
 .text          0x0081d12c       0x70 ../fir_bsp/\libucosii_bsp.a(alt_iniche_write.o)
                0x0081d12c                write
 .text          0x0081d19c      0xedc ../fir_bsp/\libucosii_bsp.a(ipnet.o)
                0x0081d19c                Netinit
                0x0081d7e8                fixup_subnet_mask
                0x0081d948                netclose
                0x0081da30                pktdemux
                0x0081de04                c_older
                0x0081ded4                ip2mac
 .text          0x0081e078      0x4b0 ../fir_bsp/\libucosii_bsp.a(ipstart.o)
                0x0081e078                ip_startup
                0x0081e35c                exit_hook
                0x0081e3c8                ip_exit
                0x0081e498                if_netnumber
 .text          0x0081e528     0x10e8 ../fir_bsp/\libucosii_bsp.a(igmp_cmn.o)
                0x0081e528                igmp_init
                0x0081e618                igmp_input
                0x0081e710                igmp_fasttimo
                0x0081e944                igmp_send
                0x0081ebec                igmp_joingroup
                0x0081ee58                igmp_leavegroup
                0x0081eed4                igmp_validate
                0x0081f230                igmp_print_stats
 .text          0x0081f610      0xbc8 ../fir_bsp/\libucosii_bsp.a(bsdsock.o)
                0x0081f610                bsd_accept
                0x0081f748                bsd_getpeername
                0x0081f874                bsd_getsockname
                0x0081f9a0                bsd_i_sockoptlen
                0x0081fb58                bsd_getsockopt
                0x0081fc78                bsd_ioctl
                0x0081fd7c                bsd_inet_ntoa
                0x0081fdac                bsd_recvfrom
                0x0081ff0c                bsd_select
                0x008200ec                bsd_setsockopt
 .text          0x008201d8      0x118 ../fir_bsp/\libucosii_bsp.a(cksum.o)
                0x008201d8                ccksum
                0x00820288                cksum
 .text          0x008202f0      0xa9c ../fir_bsp/\libucosii_bsp.a(in_utils.o)
                0x008202f0                do_trap
                0x0082031c                nextarg
                0x00820398                hexdump
                0x008204e0                print_ipad
                0x00820554                print_uptime
                0x00820680                panic
                0x008206c4                print_eth
                0x00820828                uslash
                0x008208a8                ns_printf
                0x00820a2c                std_out
                0x00820a70                con_page
                0x00820b60                parse_args
 .text          0x00820d8c      0x810 ../fir_bsp/\libucosii_bsp.a(parseip.o)
                0x00820d8c                parse_ipad
                0x008210a8                inet_addr
                0x00821110                hextoa
                0x00821180                inet_pton
                0x0082122c                inet_ntop
                0x008212b8                print46_addr
                0x00821318                inet46_addr
                0x008213dc                inet_setport
                0x00821450                convert_ip
 .text          0x0082159c      0x5e8 ../fir_bsp/\libucosii_bsp.a(tk_crnos.o)
                0x0082159c                TK_OSTimeDly
                0x008215c8                TK_OSTaskResume
                0x00821638                tcp_sleep
                0x008217d8                tcp_wakeup
                0x008218dc                TK_OSTaskQuery
                0x00821950                tk_yield
                0x0082197c                tk_stats
 .text          0x00821b84      0x79c ../fir_bsp/\libucosii_bsp.a(pktalloc.o)
                0x00821b84                pk_init
                0x00821e14                pk_alloc
                0x00821ef0                pk_validate
                0x008221a8                pk_free
                0x00822254                pk_get_max_intrsafe_buf_len
                0x00822274                dump_buf_estats
 .text          0x00822320      0x288 ../fir_bsp/\libucosii_bsp.a(q.o)
                0x00822320                getq
                0x008223e8                putq
                0x00822498                qdel
 .text          0x008225a8      0x194 ../fir_bsp/\libucosii_bsp.a(asm_cksum.o)
                0x008225a8                asm_cksum
 .text          0x0082273c      0x2e4 ../fir_bsp/\libucosii_bsp.a(brdutils.o)
                0x0082273c                dtrap
                0x0082276c                kbhit
                0x00822818                getch
                0x00822878                clock_init
                0x008228b4                clock_c
                0x008228d0                cticks_hook
                0x00822980                irq_Mask
                0x008229dc                irq_Unmask
 .text          0x00822a20      0x488 ../fir_bsp/\libucosii_bsp.a(osportco.o)
                0x00822a20                LOCK_NET_RESOURCE
                0x00822ae0                UNLOCK_NET_RESOURCE
                0x00822b68                TK_NEWTASK
                0x00822d7c                wait_app_sem
                0x00822e30                post_app_sem
 .text          0x00822ea8      0x568 ../fir_bsp/\libucosii_bsp.a(targnios.o)
                0x00822ea8                alt_iniche_init
                0x008230c4                pre_task_setup
                0x00823138                post_task_setup
                0x00823158                prep_armintcp
                0x00823190                calloc2
                0x008231c4                npalloc
                0x008232b8                npfree
                0x00823370                ncpalloc
                0x008233c4                ncpfree
 .text          0x00823410     0x19b8 ../fir_bsp/\libucosii_bsp.a(nptcp.o)
                0x00823410                pffindtype
                0x008234b0                pffindproto
                0x00823580                m_getnbuf
                0x00823728                m_free
                0x0082385c                m_freem
                0x008238a0                m_copy
                0x00823bc4                m_adj
                0x00823d94                mbuf_len
                0x00823dec                dtom
                0x00823e94                remque
                0x00823f04                insque
                0x00823f80                nptcp_init
                0x008240a4                tcp_rcv
                0x00824290                ip_output
                0x00824888                in_broadcast
                0x008248c8                np_stripoptions
                0x008249b0                so_icmpdu
                0x00824d08                tcp_tick
 .text          0x00824dc8      0xa2c ../fir_bsp/\libucosii_bsp.a(rawsock.o)
                0x00824dc8                rawip_lookup
                0x00824e38                rawip_soinput
                0x0082500c                rawip_usrreq
 .text          0x008257f4     0x17fc ../fir_bsp/\libucosii_bsp.a(sockcall.o)
                0x008257f4                DOMAIN_CHECK
                0x00825840                t_socket
                0x008258d0                t_bind
                0x00825a4c                t_listen
                0x00825b30                t_accept
                0x00825dc8                t_connect
                0x00826070                t_getpeername
                0x008260b4                t_getsockname
                0x008262f4                t_setsockopt
                0x008264d0                t_getsockopt
                0x00826674                t_recv
                0x00826764                t_recvfrom
                0x008268b4                t_sendto
                0x00826ae0                t_send
                0x00826d08                t_shutdown
                0x00826dec                t_socketclose
                0x00826f54                t_errno
 .text          0x00826ff0     0x23ec ../fir_bsp/\libucosii_bsp.a(socket.o)
                0x00826ff0                socreate
                0x008271bc                sobind
                0x00827218                solisten
                0x00827308                sofree
                0x00827438                soclose
                0x008277a4                soabort
                0x008277f4                soaccept
                0x00827890                soconnect
                0x00827964                sodisconnect
                0x00827a04                sosend
                0x0082800c                soreceive
                0x008287f0                soshutdown
                0x00828898                sorflush
                0x00828998                sosetopt
                0x00828e58                sogetopt
                0x00829398                sohasoutofband
 .text          0x008293dc     0x1318 ../fir_bsp/\libucosii_bsp.a(socket2.o)
                0x008293dc                soisconnecting
                0x00829448                soisconnected
                0x00829544                soisdisconnecting
                0x008295d0                soisdisconnected
                0x0082968c                sonewconn
                0x008298a8                soqinsque
                0x00829954                soqremque
                0x00829a74                socantsendmore
                0x00829ac4                socantrcvmore
                0x00829b14                sbselqueue
                0x00829b4c                sbwait
                0x00829bb4                sbwakeup
                0x00829c50                soreserve
                0x00829cd0                sbreserve
                0x00829d30                sbrelease
                0x00829d78                sbappend
                0x00829e20                sbappendrecord
                0x00829f00                sbappendaddr
                0x0082a108                sbcompress
                0x0082a2f0                sbflush
                0x0082a380                sbdrop
                0x0082a550                sbdropend
                0x0082a660                sbdroprecord
 .text          0x0082a6f4      0x914 ../fir_bsp/\libucosii_bsp.a(soselect.o)
                0x0082a6f4                t_select
                0x0082a914                sock_selscan
                0x0082aa6c                sock_select
                0x0082ac80                in_pcbnotify
                0x0082ad4c                tcp_notify
                0x0082adb4                ifd_clr
                0x0082aea4                ifd_set
                0x0082af18                ifd_isset
                0x0082af98                ifd_get
 .text          0x0082b008     0x3020 ../fir_bsp/\libucosii_bsp.a(tcp_in.o)
                0x0082b008                tcp_reass
                0x0082b410                tcp_input
                0x0082d964                tcp_dooptions
                0x0082daf4                tcp_pulloutofband
                0x0082dc20                tcp_xmit_timer
                0x0082dec4                ip4_tcpmss
                0x0082df0c                tcp_mss
 .text          0x0082e028     0x1360 ../fir_bsp/\libucosii_bsp.a(tcp_out.o)
                0x0082e028                tcp_output
                0x0082f1a4                tcp_setpersist
 .text          0x0082f388      0x9e8 ../fir_bsp/\libucosii_bsp.a(tcp_subr.o)
                0x0082f388                tcp_init
                0x0082f3e0                tcp_template
                0x0082f4f8                tcp_respond
                0x0082f980                tcp_newtcpcb
                0x0082fa98                tcp_drop
                0x0082fb44                tcp_close
                0x0082fc2c                tcp_quench
                0x0082fc78                tcp_putseq
                0x0082fcf8                tcp_getseq
 .text          0x0082fd70      0x798 ../fir_bsp/\libucosii_bsp.a(tcp_timr.o)
                0x0082fd70                tcp_slowtimo
                0x00830010                tcp_canceltimers
                0x0083006c                tcp_timers
 .text          0x00830508      0x9ec ../fir_bsp/\libucosii_bsp.a(tcp_usr.o)
                0x00830508                tcp_usrreq
                0x00830c0c                tcp_attach
                0x00830d40                tcp_disconnect
                0x00830e14                tcp_usrclosed
 .text          0x00830ef4       0x4c ../fir_bsp/\libucosii_bsp.a(tcpport.o)
                0x00830ef4                tcpinit
 .text          0x00830f40      0xd20 ../fir_bsp/\libucosii_bsp.a(udpsock.o)
                0x00830f40                udp_lookup
                0x00830fb0                udp_soinput
                0x00831168                udp_usrreq
                0x008313ec                udp4_sockbind
                0x00831728                udp4_socksend
                0x00831b04                udp4_sockaddr
 .text          0x00831c60      0x154 ../fir_bsp/\libucosii_bsp.a(alt_alarm_start.o)
                0x00831c60                alt_alarm_start
 .text          0x00831db4      0x14c ../fir_bsp/\libucosii_bsp.a(alt_busy_sleep.o)
                0x00831db4                alt_busy_sleep
 .text          0x00831f00      0x15c ../fir_bsp/\libucosii_bsp.a(alt_close.o)
                0x00831f00                alt_close
 .text          0x0083205c       0x78 ../fir_bsp/\libucosii_bsp.a(alt_dcache_flush.o)
                0x0083205c                alt_dcache_flush
 .text          0x008320d4       0x2c ../fir_bsp/\libucosii_bsp.a(alt_dev.o)
 .text          0x00832100      0x114 ../fir_bsp/\libucosii_bsp.a(alt_dev_llist_insert.o)
                0x00832100                alt_dev_llist_insert
 .text          0x00832214       0x64 ../fir_bsp/\libucosii_bsp.a(alt_do_ctors.o)
                0x00832214                _do_ctors
 .text          0x00832278       0x64 ../fir_bsp/\libucosii_bsp.a(alt_do_dtors.o)
                0x00832278                _do_dtors
 .text          0x008322dc        0x0 ../fir_bsp/\libucosii_bsp.a(alt_errno.o)
 .text          0x008322dc       0x94 ../fir_bsp/\libucosii_bsp.a(alt_find_dev.o)
                0x008322dc                alt_find_dev
 .text          0x00832370      0x1d4 ../fir_bsp/\libucosii_bsp.a(alt_iic.o)
                0x00832370                alt_ic_isr_register
                0x008323c0                alt_ic_irq_enable
                0x0083245c                alt_ic_irq_disable
                0x008324fc                alt_ic_irq_enabled
 .text          0x00832544       0xf8 ../fir_bsp/\libucosii_bsp.a(alt_iic_isr_register.o)
                0x00832544                alt_iic_isr_register
 .text          0x0083263c      0x13c ../fir_bsp/\libucosii_bsp.a(alt_io_redirect.o)
                0x00832700                alt_io_redirect
 .text          0x00832778        0x0 ../fir_bsp/\libucosii_bsp.a(alt_irq_entry.o)
 .text          0x00832778        0x0 ../fir_bsp/\libucosii_bsp.a(alt_irq_handler.o)
 .text          0x00832778      0x2c4 ../fir_bsp/\libucosii_bsp.a(alt_open.o)
                0x00832854                open
 .text          0x00832a3c      0x180 ../fir_bsp/\libucosii_bsp.a(alt_read.o)
                0x00832a3c                alt_read
 .text          0x00832bbc       0x60 ../fir_bsp/\libucosii_bsp.a(alt_release_fd.o)
                0x00832bbc                alt_release_fd
 .text          0x00832c1c       0x38 ../fir_bsp/\libucosii_bsp.a(alt_remap_cached.o)
                0x00832c1c                alt_remap_cached
 .text          0x00832c54       0x40 ../fir_bsp/\libucosii_bsp.a(alt_remap_uncached.o)
                0x00832c54                alt_remap_uncached
 .text          0x00832c94      0x1a8 ../fir_bsp/\libucosii_bsp.a(alt_tick.o)
                0x00832c94                alt_alarm_stop
                0x00832d2c                alt_tick
 .text          0x00832e3c      0x180 ../fir_bsp/\libucosii_bsp.a(alt_write.o)
                0x00832e3c                alt_write
 .text          0x00832fbc       0x20 ../fir_bsp/\libucosii_bsp.a(altera_nios2_qsys_irq.o)
                0x00832fbc                altera_nios2_qsys_irq_init
 .text          0x00832fdc       0xd0 ../fir_bsp/\libucosii_bsp.a(os_cpu_a.o)
                0x00832fdc                OSCtxSw
                0x00832fdc                OSIntCtxSw
                0x00833068                OSStartHighRdy
                0x00833088                OSStartTsk
 .text          0x008330ac      0x424 ../fir_bsp/\libucosii_bsp.a(os_cpu_c.o)
                0x008330ac                OSTaskStkInit
                0x008333bc                OSTaskCreateHook
                0x008333dc                OSTaskDelHook
                0x008333fc                OSTaskSwHook
                0x00833418                OSTaskStatHook
                0x00833434                OSTimeTickHook
                0x0083345c                OSInitHookBegin
                0x00833478                OSInitHookEnd
                0x00833494                OSTaskIdleHook
                0x008334b0                OSTCBInitHook
 .text          0x008334d0      0x460 ../fir_bsp/\libucosii_bsp.a(altera_avalon_cfi_flash_amd.o)
                0x008334d0                alt_program_amd
                0x00833538                alt_erase_block_amd
 .text          0x00833930      0x460 ../fir_bsp/\libucosii_bsp.a(altera_avalon_cfi_flash_intel.o)
                0x00833930                alt_program_intel
                0x008339b4                alt_erase_block_intel
 .text          0x00833d90      0x238 ../fir_bsp/\libucosii_bsp.a(altera_avalon_spi.o)
                0x00833d90                alt_avalon_spi_command
 .text          0x00833fc8      0x444 ../fir_bsp/\libucosii_bsp.a(allports.o)
                0x00833fc8                netmain_init
                0x008340c4                icmp_port_du
                0x0083414c                station_state
                0x008342b0                sysuptime
                0x00834344                packet_check
                0x00834390                mcastlist
                0x008343b4                prep_modules
 .text          0x0083440c       0xa4 ../fir_bsp/\libucosii_bsp.a(tk_misc.o)
                0x0083440c                create_apptasks
                0x00834430                task_stats
 .text          0x008344b0       0xb0 ../fir_bsp/\libucosii_bsp.a(alt_iniche_fcntl.o)
                0x008344b0                fcntl
 .text          0x00834560     0x15b0 ../fir_bsp/\libucosii_bsp.a(et_arp.o)
                0x00834560                etainit
                0x008345b4                et_send
                0x00834730                arp_free_pending
                0x008347b8                arp_send_pending
                0x0083482c                send_arp
                0x00834cc4                find_oldest_arp
                0x00834ec0                make_arp_entry
                0x00834fd4                arpReply
                0x00835268                arprcv
                0x008354c8                send_via_arp
                0x00835698                cb_arpent_tmo
                0x00835844                grat_arp
 .text          0x00835b10      0x298 ../fir_bsp/\libucosii_bsp.a(iface.o)
                0x00835b10                if_getbynum
                0x00835b94                isbcast
                0x00835c74                reg_type
                0x00835d10                if_killsocks
 .text          0x00835da8     0x22a4 ../fir_bsp/\libucosii_bsp.a(ip.o)
                0x00835da8                ip_init
                0x00835ea4                ip_bldhead
                0x00836048                ip_write_internal
                0x008367c8                ip_write
                0x00836a10                ip_write2
                0x00836dc0                ip_raw_write
                0x00836e98                ip_fragment_lc
                0x00837320                ip_fragment
                0x00837944                ip_mymach
                0x008379f0                ip_dump
                0x00837ca8                iproute
                0x00837f14                ip_copypkt
 .text          0x0083804c      0xe3c ../fir_bsp/\libucosii_bsp.a(ipdemux.o)
                0x0083804c                ip_rcv
                0x0083844c                ip_rcv_phase2
                0x00838a58                ip_demux
 .text          0x00838e88      0x2f0 ../fir_bsp/\libucosii_bsp.a(ipmc.o)
                0x00838e88                in_addmulti
                0x00838ff0                in_delmulti
                0x00839108                lookup_mcast
 .text          0x00839178       0xe4 ../fir_bsp/\libucosii_bsp.a(ipport.o)
                0x00839178                prep_ifaces
                0x0083920c                netexit
                0x00839234                evtmap_setup
 .text          0x0083925c      0x550 ../fir_bsp/\libucosii_bsp.a(ipraw.o)
                0x0083925c                ip_raw_open
                0x0083934c                ip_raw_close
                0x0083940c                ip_raw_input
                0x00839644                ip_raw_alloc
                0x00839710                ip_raw_free
                0x00839750                ip_raw_maxalloc
 .text          0x008397ac      0x6f0 ../fir_bsp/\libucosii_bsp.a(iproute.o)
                0x008397ac                rt_lookup
                0x00839930                add_route
                0x00839d58                del_route
 .text          0x00839e9c      0xe3c ../fir_bsp/\libucosii_bsp.a(udp.o)
                0x00839e9c                udpdemux
                0x0083a6f4                udp_send
                0x0083a9ac                udpswap
                0x0083aadc                udp_socket
                0x0083abac                udp_alloc
                0x0083ac6c                udp_maxalloc
                0x0083ac98                udp_free
 .text          0x0083acd8      0x2e8 ../fir_bsp/\libucosii_bsp.a(igmp.o)
                0x0083acd8                igmpv1_input
 .text          0x0083afc0      0x7c0 ../fir_bsp/\libucosii_bsp.a(igmp2.o)
                0x0083afc0                igmpv2_input
                0x0083b120                igmpv2_process_report
                0x0083b26c                igmpv2_process_query
                0x0083b4b8                igmpv2_chk_set_timer
                0x0083b610                igmpv2_chk4_rtr_alert_opt
 .text          0x0083b780      0x8fc ../fir_bsp/\libucosii_bsp.a(ipopt.o)
                0x0083b780                IPADDR_TO_NETP
                0x0083b8c8                ip_setmoptions
                0x0083beb8                ip_getmoptions
                0x0083bff8                ip_freemoptions
 .text          0x0083c07c      0x6e8 ../fir_bsp/\libucosii_bsp.a(u_mctest.o)
                0x0083c07c                u_mctest_init
                0x0083c0ac                u_mctest_run
 .text          0x0083c764      0x3d0 ../fir_bsp/\libucosii_bsp.a(dhcsetup.o)
                0x0083c764                dhc_setup
                0x0083ca30                dhc_main_ipset
 .text          0x0083cb34      0x40c ../fir_bsp/\libucosii_bsp.a(memdev.o)
                0x0083cb34                init_memdev
                0x0083cbac                md_fopen
                0x0083cbd4                md_fclose
                0x0083cbf4                md_fread
                0x0083cd74                md_fwrite
                0x0083cdf4                md_fseek
                0x0083ce20                md_ftell
                0x0083ce44                md_fgetc
                0x0083cf1c                md_unlink
 .text          0x0083cf40      0x1c8 ../fir_bsp/\libucosii_bsp.a(netmain.o)
                0x0083cf40                netmain
                0x0083d034                tk_netmain
                0x0083d0bc                tk_nettick
 .text          0x0083d108      0x1cc ../fir_bsp/\libucosii_bsp.a(tcpcksum.o)
                0x0083d108                tcp_cksum
 .text          0x0083d2d4     0x3294 ../fir_bsp/\libucosii_bsp.a(dhcpclnt.o)
                0x0083d2d4                dhc_get_srv_ipaddr
                0x0083d364                dhc_init
                0x0083d420                dhc_set_callback
                0x0083d464                dhc_upcall
                0x0083dc94                dhc_buildheader
                0x0083deb0                dhc_discover
                0x0083e3c8                dhc_rx_offer
                0x0083e4cc                dhc_request
                0x0083f008                dhc_setip
                0x0083f288                dhc_resetip
                0x0083f36c                dhc_decline
                0x0083f550                dhc_extract_opts
                0x0083f80c                dhc_second
                0x008400fc                dhc_halt
                0x00840184                dhc_reclaim
                0x00840354                dhc_state_init
                0x008403b4                dhc_alldone
                0x00840444                dhc_ifacedone
                0x008404b8                dhc_set_state
 .text          0x00840568       0xcc ../fir_bsp/\libucosii_bsp.a(dhcputil.o)
                0x00840568                find_opt
 .text          0x00840634      0x31c ../fir_bsp/\libucosii_bsp.a(udp_open.o)
                0x00840634                udp_open
                0x0084086c                udp_close
 .text          0x00840950      0x900 ../fir_bsp/\libucosii_bsp.a(in_pcb.o)
                0x00840950                in_pcballoc
                0x008409e4                in_pcbdetach
                0x00840a38                in_pcbbind
                0x00840c8c                in_pcbconnect
                0x00840e9c                in_pcbdisconnect
                0x00840efc                in_setsockaddr
                0x00840f78                in_setpeeraddr
                0x00840ff4                in_pcblookup
 .text          0x00841250     0x1a74 ../fir_bsp/\libucosii_bsp.a(vfsfiles.o)
                0x00841250                set_vfopen_error
                0x00841278                get_vfopen_error
                0x00841298                vf_alloc_and_link_vop
                0x00841314                vf_alloc_buffer
                0x008413ec                vf_free_buffer
                0x0084143c                vfopen_locked
                0x008417a4                vfopen
                0x008417f4                vfclose_locked
                0x0084199c                vfclose
                0x008419dc                vfflush
                0x00841a24                vfgets
                0x00841b08                vfeof
                0x00841b60                vunlink_flag_open_files
                0x00841bbc                vunlink
                0x00841ddc                vfread
                0x00841f88                vfwrite_locked
                0x00842370                vfwrite
                0x008423d0                vfseek
                0x0084254c                vftell
                0x00842680                vgetc_locked
                0x008427a0                vgetc
                0x008427e8                vfslookup_locked
                0x00842920                vfslookup
                0x00842968                strippath
                0x00842b50                isvfile_locked
                0x00842bb4                isvfile
                0x00842bfc                vferror
                0x00842c68                vclearerr
 .text          0x00842cc4       0x24 ../fir_bsp/\libucosii_bsp.a(vfsport.o)
                0x00842cc4                prep_vfs
 .text          0x00842ce8        0x0 ../fir_bsp/\libucosii_bsp.a(alt_exception_entry.o)
 .text          0x00842ce8      0x1b4 ../fir_bsp/\libucosii_bsp.a(alt_fcntl.o)
                0x00842ce8                alt_fcntl
 .text          0x00842e9c      0x120 ../fir_bsp/\libucosii_bsp.a(alt_find_file.o)
                0x00842e9c                alt_find_file
 .text          0x00842fbc       0xf4 ../fir_bsp/\libucosii_bsp.a(alt_get_fd.o)
                0x00842fbc                alt_get_fd
 .text          0x008430b0      0x580 ../fir_bsp/\libucosii_bsp.a(timeouts.o)
                0x008430b0                inet_timer
                0x008433b0                in_timerset
                0x00843588                in_timerkill
 .text          0x00843630     0x130c ../fir_bsp/\libucosii_bsp.a(icmp.o)
                0x00843630                icmprcv
                0x00844264                icmp_destun
                0x008445b4                icmp_timex
                0x008448e8                icmp_du
 .text          0x0084493c     0x1e08 ../fir_bsp/\libucosii_bsp.a(ip_reasm.o)
                0x0084493c                ip_reasm_match_frag_with_ire
                0x00844a0c                ip_reasm_determine_type_of_frag
                0x00844af8                ip_reasm_check_mem_useage
                0x00844b90                ip_reasm_incr_mem_useage
                0x00844c38                ip_reasm_decr_mem_useage
                0x00844cd8                ip_reasm_process_first_fragment
                0x00844fb8                ip_reassm
                0x00845058                ip_reasm_compute_overlap
                0x008455e8                ip_reasm_process_subsequent_fragments
                0x00845b7c                ip_reasm_find_ire
                0x00845be0                ip_reasm_copy_queued_fragments_into_reassy_buffer
                0x00845f3c                ip_reasm_process_timer_tick
                0x0084605c                ip_reasm_delete_ire
                0x00846224                ip_reasm_mark_compact_rfq
                0x0084636c                ipr_stats
                0x008466f0                ip_reasm_send_icmp_timex
 .text          0x00846744       0x14 d:/altera/13.0sp1/nios2eds/bin/gnu/h-i686-mingw32/bin/../lib/gcc/nios2-elf/4.1.2/../../../../nios2-elf/lib\libc.a(lib_a-atexit.o)
                0x00846744                atexit
 .text          0x00846758       0x18 d:/altera/13.0sp1/nios2eds/bin/gnu/h-i686-mingw32/bin/../lib/gcc/nios2-elf/4.1.2/../../../../nios2-elf/lib\libc.a(lib_a-atoi.o)
                0x00846758                _atoi_r
                0x00846764                atoi
 .text          0x00846770       0x1c d:/altera/13.0sp1/nios2eds/bin/gnu/h-i686-mingw32/bin/../lib/gcc/nios2-elf/4.1.2/../../../../nios2-elf/lib\libc.a(lib_a-calloc.o)
                0x00846770                calloc
 .text          0x0084678c       0x74 d:/altera/13.0sp1/nios2eds/bin/gnu/h-i686-mingw32/bin/../lib/gcc/nios2-elf/4.1.2/../../../../nios2-elf/lib\libc.a(lib_a-memcmp.o)
                0x0084678c                memcmp
 .text          0x00846800       0xd4 d:/altera/13.0sp1/nios2eds/bin/gnu/h-i686-mingw32/bin/../lib/gcc/nios2-elf/4.1.2/../../../../nios2-elf/lib\libc.a(lib_a-sprintf.o)
                0x00846800                sprintf
                0x00846874                _sprintf_r
 .text          0x008468d4       0x8c d:/altera/13.0sp1/nios2eds/bin/gnu/h-i686-mingw32/bin/../lib/gcc/nios2-elf/4.1.2/../../../../nios2-elf/lib\libc.a(lib_a-strcpy.o)
                0x008468d4                strcpy
 .text          0x00846960       0xf0 d:/altera/13.0sp1/nios2eds/bin/gnu/h-i686-mingw32/bin/../lib/gcc/nios2-elf/4.1.2/../../../../nios2-elf/lib\libc.a(lib_a-strncmp.o)
                0x00846960                strncmp
 .text          0x00846a50       0xbc d:/altera/13.0sp1/nios2eds/bin/gnu/h-i686-mingw32/bin/../lib/gcc/nios2-elf/4.1.2/../../../../nios2-elf/lib\libc.a(lib_a-strncpy.o)
                0x00846a50                strncpy
 .text          0x00846b0c      0x268 d:/altera/13.0sp1/nios2eds/bin/gnu/h-i686-mingw32/bin/../lib/gcc/nios2-elf/4.1.2/../../../../nios2-elf/lib\libc.a(lib_a-strtol.o)
                0x00846b0c                _strtol_r
                0x00846d50                strtol
 .text          0x00846d74       0x34 d:/altera/13.0sp1/nios2eds/bin/gnu/h-i686-mingw32/bin/../lib/gcc/nios2-elf/4.1.2/../../../../nios2-elf/lib\libc.a(lib_a-vprintf.o)
                0x00846d74                _vprintf_r
                0x00846d88                vprintf
 .text          0x00846da8       0x74 d:/altera/13.0sp1/nios2eds/bin/gnu/h-i686-mingw32/bin/../lib/gcc/nios2-elf/4.1.2/../../../../nios2-elf/lib\libc.a(lib_a-vsprintf.o)
                0x00846da8                _vsprintf_r
                0x00846df8                vsprintf
 .text          0x00846e1c      0x134 d:/altera/13.0sp1/nios2eds/bin/gnu/h-i686-mingw32/bin/../lib/gcc/nios2-elf/4.1.2/../../../../nios2-elf/lib\libc.a(lib_a-__atexit.o)
                0x00846e1c                __register_exitproc
 *(.gnu.warning.*)
 *(.fini)
                0x00846f50                PROVIDE (__etext, ABSOLUTE (.))
                0x00846f50                PROVIDE (_etext, ABSOLUTE (.))
                0x00846f50                PROVIDE (etext, ABSOLUTE (.))
 *(.eh_frame_hdr)
                0x00846f50                . = ALIGN (0x4)
                0x00846f50                PROVIDE (__preinit_array_start, ABSOLUTE (.))
 *(.preinit_array)
                0x00846f50                PROVIDE (__preinit_array_end, ABSOLUTE (.))
                0x00846f50                PROVIDE (__init_array_start, ABSOLUTE (.))
 *(.init_array)
                0x00846f50                PROVIDE (__init_array_end, ABSOLUTE (.))
                0x00846f50                PROVIDE (__fini_array_start, ABSOLUTE (.))
 *(.fini_array)
                0x00846f50                PROVIDE (__fini_array_end, ABSOLUTE (.))
 *(.eh_frame)
 *(.gcc_except_table)
 *(.dynamic)
                0x00846f50                PROVIDE (__CTOR_LIST__, ABSOLUTE (.))
 *(.ctors)
 *(SORT(.ctors.*))
 .ctors.65535   0x00846f50        0x4 d:/altera/13.0sp1/nios2eds/bin/gnu/h-i686-mingw32/bin/../lib/gcc/nios2-elf/4.1.2/../../../../nios2-elf/lib\libc.a(lib_a-__call_atexit.o)
                0x00846f54                PROVIDE (__CTOR_END__, ABSOLUTE (.))
                0x00846f54                PROVIDE (__DTOR_LIST__, ABSOLUTE (.))
 *(.dtors)
 *(SORT(.dtors.*))
                0x00846f54                PROVIDE (__DTOR_END__, ABSOLUTE (.))
 *(.jcr)
                0x00846f54                . = ALIGN (0x4)

.rodata         0x00846f54     0x4b50
                0x00846f54                PROVIDE (__ram_rodata_start, ABSOLUTE (.))
                0x00846f54                . = ALIGN (0x4)
 *(.rodata .rodata.* .gnu.linkonce.r.*)
 .rodata        0x00846f54       0x60 obj/default/LCD.o
 .rodata        0x00846fb4       0xa8 obj/default/SSS_DE2_115.o
 .rodata        0x0084705c      0xba4 obj/default/alt_error_handler.o
 .rodata        0x00847c00       0x64 obj/default/dm9000a.o
 .rodata        0x00847c64      0xa34 obj/default/iniche_init.o
 .rodata        0x00848698      0x234 obj/default/network_utilities.o
 .rodata        0x008488cc      0x2e0 obj/default/simple_socket_server.o
 .rodata        0x00848bac       0x14 d:/altera/13.0sp1/nios2eds/bin/gnu/h-i686-mingw32/bin/../lib/gcc/nios2-elf/4.1.2\libgcc.a(_thenan_df.o)
                0x00848bac                __thenan_df
 .rodata        0x00848bc0      0x100 d:/altera/13.0sp1/nios2eds/bin/gnu/h-i686-mingw32/bin/../lib/gcc/nios2-elf/4.1.2\libgcc.a(_clz.o)
                0x00848bc0                __clz_tab
 .rodata        0x00848cc0      0x281 d:/altera/13.0sp1/nios2eds/bin/gnu/h-i686-mingw32/bin/../lib/gcc/nios2-elf/4.1.2/../../../../nios2-elf/lib\libc.a(lib_a-ctype_.o)
                0x00848cc0                _ctype_
 *fill*         0x00848f41        0x3 00
 .rodata.str1.4
                0x00848f44        0x2 d:/altera/13.0sp1/nios2eds/bin/gnu/h-i686-mingw32/bin/../lib/gcc/nios2-elf/4.1.2/../../../../nios2-elf/lib\libc.a(lib_a-impure.o)
                                  0x4 (size before relaxing)
 *fill*         0x00848f46        0x2 00
 .rodata.str1.4
                0x00848f48        0x3 d:/altera/13.0sp1/nios2eds/bin/gnu/h-i686-mingw32/bin/../lib/gcc/nios2-elf/4.1.2/../../../../nios2-elf/lib\libc.a(lib_a-perror.o)
                                  0x4 (size before relaxing)
 *fill*         0x00848f4b        0x1 00
 .rodata.str1.4
                0x00848f4c        0x2 d:/altera/13.0sp1/nios2eds/bin/gnu/h-i686-mingw32/bin/../lib/gcc/nios2-elf/4.1.2/../../../../nios2-elf/lib\libc.a(lib_a-puts.o)
                                  0x4 (size before relaxing)
 *fill*         0x00848f4e        0x2 00
 .rodata.str1.4
                0x00848f50      0x7a2 d:/altera/13.0sp1/nios2eds/bin/gnu/h-i686-mingw32/bin/../lib/gcc/nios2-elf/4.1.2/../../../../nios2-elf/lib\libc.a(lib_a-strerror.o)
                                0x7a8 (size before relaxing)
 *fill*         0x008496f2        0x2 00
 .rodata.str1.4
                0x008496f4       0x5e d:/altera/13.0sp1/nios2eds/bin/gnu/h-i686-mingw32/bin/../lib/gcc/nios2-elf/4.1.2/../../../../nios2-elf/lib\libc.a(lib_a-vfprintf.o)
                                 0x60 (size before relaxing)
 .rodata        0x00849752       0x20 d:/altera/13.0sp1/nios2eds/bin/gnu/h-i686-mingw32/bin/../lib/gcc/nios2-elf/4.1.2/../../../../nios2-elf/lib\libc.a(lib_a-vfprintf.o)
 *fill*         0x00849772        0x2 00
 .rodata.str1.4
                0x00849774       0x10 d:/altera/13.0sp1/nios2eds/bin/gnu/h-i686-mingw32/bin/../lib/gcc/nios2-elf/4.1.2/../../../../nios2-elf/lib\libc.a(lib_a-dtoa.o)
                                 0x14 (size before relaxing)
 .rodata.str1.4
                0x00849784       0x10 d:/altera/13.0sp1/nios2eds/bin/gnu/h-i686-mingw32/bin/../lib/gcc/nios2-elf/4.1.2/../../../../nios2-elf/lib\libc.a(lib_a-locale.o)
                                 0x18 (size before relaxing)
 .rodata        0x00849794       0x30 d:/altera/13.0sp1/nios2eds/bin/gnu/h-i686-mingw32/bin/../lib/gcc/nios2-elf/4.1.2/../../../../nios2-elf/lib\libc.a(lib_a-locale.o)
 .rodata        0x008497c4      0x124 d:/altera/13.0sp1/nios2eds/bin/gnu/h-i686-mingw32/bin/../lib/gcc/nios2-elf/4.1.2/../../../../nios2-elf/lib\libc.a(lib_a-mprec.o)
                0x008497c4                __mprec_tens
                0x0084988c                __mprec_bigtens
                0x008498b4                __mprec_tinytens
 .rodata        0x008498e8       0x14 ../fir_bsp/\libucosii_bsp.a(alt_main.o)
 .rodata        0x008498fc      0x120 ../fir_bsp/\libucosii_bsp.a(os_core.o)
                0x008498fc                OSUnMapTbl
 .rodata        0x00849a1c       0x60 ../fir_bsp/\libucosii_bsp.a(alt_sys_init.o)
 .rodata        0x00849a7c       0xd8 ../fir_bsp/\libucosii_bsp.a(ipnet.o)
 .rodata        0x00849b54       0xec ../fir_bsp/\libucosii_bsp.a(ipstart.o)
 .rodata        0x00849c40      0x54c ../fir_bsp/\libucosii_bsp.a(igmp_cmn.o)
 .rodata        0x0084a18c       0xb8 ../fir_bsp/\libucosii_bsp.a(in_utils.o)
 .rodata        0x0084a244       0x94 ../fir_bsp/\libucosii_bsp.a(parseip.o)
 .rodata        0x0084a2d8      0x1a8 ../fir_bsp/\libucosii_bsp.a(tk_crnos.o)
 .rodata        0x0084a480      0x118 ../fir_bsp/\libucosii_bsp.a(pktalloc.o)
 .rodata        0x0084a598       0x2c ../fir_bsp/\libucosii_bsp.a(brdutils.o)
 .rodata        0x0084a5c4      0x26c ../fir_bsp/\libucosii_bsp.a(osportco.o)
 .rodata        0x0084a830       0xa0 ../fir_bsp/\libucosii_bsp.a(targnios.o)
 .rodata        0x0084a8d0       0x90 ../fir_bsp/\libucosii_bsp.a(nptcp.o)
 .rodata        0x0084a960        0x8 ../fir_bsp/\libucosii_bsp.a(sockcall.o)
 .rodata        0x0084a968       0x50 ../fir_bsp/\libucosii_bsp.a(socket.o)
 .rodata        0x0084a9b8       0x40 ../fir_bsp/\libucosii_bsp.a(socket2.o)
 .rodata        0x0084a9f8       0x20 ../fir_bsp/\libucosii_bsp.a(tcp_in.o)
 .rodata        0x0084aa18       0x40 ../fir_bsp/\libucosii_bsp.a(tcp_out.o)
 .rodata        0x0084aa58       0x24 ../fir_bsp/\libucosii_bsp.a(tcp_subr.o)
 .rodata        0x0084aa7c       0x2c ../fir_bsp/\libucosii_bsp.a(tcp_usr.o)
 .rodata        0x0084aaa8        0xc ../fir_bsp/\libucosii_bsp.a(alt_dev.o)
 .rodata        0x0084aab4        0x4 ../fir_bsp/\libucosii_bsp.a(os_cpu_c.o)
 .rodata        0x0084aab8      0x1d4 ../fir_bsp/\libucosii_bsp.a(allports.o)
 .rodata        0x0084ac8c       0x34 ../fir_bsp/\libucosii_bsp.a(tk_misc.o)
 .rodata        0x0084acc0       0x44 ../fir_bsp/\libucosii_bsp.a(et_arp.o)
 .rodata        0x0084ad04      0x1dc ../fir_bsp/\libucosii_bsp.a(ip.o)
 .rodata        0x0084aee0      0x120 ../fir_bsp/\libucosii_bsp.a(ipdemux.o)
 .rodata        0x0084b000       0x34 ../fir_bsp/\libucosii_bsp.a(ipport.o)
 .rodata        0x0084b034       0x24 ../fir_bsp/\libucosii_bsp.a(ipraw.o)
 .rodata        0x0084b058       0x38 ../fir_bsp/\libucosii_bsp.a(iproute.o)
 .rodata        0x0084b090       0xe8 ../fir_bsp/\libucosii_bsp.a(udp.o)
 .rodata        0x0084b178      0x2d0 ../fir_bsp/\libucosii_bsp.a(u_mctest.o)
 .rodata        0x0084b448       0xf8 ../fir_bsp/\libucosii_bsp.a(dhcsetup.o)
 .rodata        0x0084b540       0x34 ../fir_bsp/\libucosii_bsp.a(netmain.o)
 .rodata        0x0084b574        0x8 ../fir_bsp/\libucosii_bsp.a(dhcpclnt.o)
 .rodata        0x0084b57c       0x84 ../fir_bsp/\libucosii_bsp.a(udp_open.o)
 .rodata        0x0084b600       0x34 ../fir_bsp/\libucosii_bsp.a(vfsfiles.o)
 .rodata        0x0084b634      0x318 ../fir_bsp/\libucosii_bsp.a(icmp.o)
 .rodata        0x0084b94c      0x158 ../fir_bsp/\libucosii_bsp.a(ip_reasm.o)
 *(.rodata1)
                0x0084baa4                . = ALIGN (0x4)
                0x0084baa4                PROVIDE (__ram_rodata_end, ABSOLUTE (.))
                0x00846f54                PROVIDE (__flash_rodata_start, LOADADDR (.rodata))

.rwdata         0x0084baa4     0x213c
                0x0084baa4                PROVIDE (__ram_rwdata_start, ABSOLUTE (.))
                0x0084baa4                . = ALIGN (0x4)
 *(.got.plt)
 *(.got)
 *(.data1)
 *(.data .data.* .gnu.linkonce.d.*)
 .data          0x0084baa4        0x0 ../fir_bsp//obj/HAL/src/crt0.o
 .data          0x0084baa4        0x0 obj/default/LCD.o
 .data          0x0084baa4        0x0 obj/default/SSS_DE2_115.o
 .data          0x0084baa4        0x0 obj/default/alt_error_handler.o
 .data          0x0084baa4        0x0 obj/default/dm9000a.o
 .data          0x0084baa4       0x18 obj/default/iniche_init.o
                0x0084baa4                ssstask
 .data          0x0084babc        0x0 obj/default/led.o
 .data          0x0084babc        0x0 obj/default/network_utilities.o
 .data          0x0084babc        0x0 obj/default/simple_socket_server.o
 .data          0x0084babc        0x0 obj/default/tse_my_system.o
 .data          0x0084babc        0x0 d:/altera/13.0sp1/nios2eds/bin/gnu/h-i686-mingw32/bin/../lib/gcc/nios2-elf/4.1.2\libgcc.a(_fixunsdfsi.o)
 .data          0x0084babc        0x0 d:/altera/13.0sp1/nios2eds/bin/gnu/h-i686-mingw32/bin/../lib/gcc/nios2-elf/4.1.2\libgcc.a(_addsub_df.o)
 .data          0x0084babc        0x0 d:/altera/13.0sp1/nios2eds/bin/gnu/h-i686-mingw32/bin/../lib/gcc/nios2-elf/4.1.2\libgcc.a(_mul_df.o)
 .data          0x0084babc        0x0 d:/altera/13.0sp1/nios2eds/bin/gnu/h-i686-mingw32/bin/../lib/gcc/nios2-elf/4.1.2\libgcc.a(_ge_df.o)
 .data          0x0084babc        0x0 d:/altera/13.0sp1/nios2eds/bin/gnu/h-i686-mingw32/bin/../lib/gcc/nios2-elf/4.1.2\libgcc.a(_df_to_si.o)
 .data          0x0084babc        0x0 d:/altera/13.0sp1/nios2eds/bin/gnu/h-i686-mingw32/bin/../lib/gcc/nios2-elf/4.1.2\libgcc.a(_thenan_df.o)
 .data          0x0084babc        0x0 d:/altera/13.0sp1/nios2eds/bin/gnu/h-i686-mingw32/bin/../lib/gcc/nios2-elf/4.1.2\libgcc.a(_usi_to_df.o)
 .data          0x0084babc        0x0 d:/altera/13.0sp1/nios2eds/bin/gnu/h-i686-mingw32/bin/../lib/gcc/nios2-elf/4.1.2\libgcc.a(_muldi3.o)
 .data          0x0084babc        0x0 d:/altera/13.0sp1/nios2eds/bin/gnu/h-i686-mingw32/bin/../lib/gcc/nios2-elf/4.1.2\libgcc.a(_clzsi2.o)
 .data          0x0084babc        0x0 d:/altera/13.0sp1/nios2eds/bin/gnu/h-i686-mingw32/bin/../lib/gcc/nios2-elf/4.1.2\libgcc.a(_pack_df.o)
 .data          0x0084babc        0x0 d:/altera/13.0sp1/nios2eds/bin/gnu/h-i686-mingw32/bin/../lib/gcc/nios2-elf/4.1.2\libgcc.a(_unpack_df.o)
 .data          0x0084babc        0x0 d:/altera/13.0sp1/nios2eds/bin/gnu/h-i686-mingw32/bin/../lib/gcc/nios2-elf/4.1.2\libgcc.a(_fpcmp_parts_df.o)
 .data          0x0084babc        0x0 d:/altera/13.0sp1/nios2eds/bin/gnu/h-i686-mingw32/bin/../lib/gcc/nios2-elf/4.1.2\libgcc.a(_clz.o)
 .data          0x0084babc        0x0 d:/altera/13.0sp1/nios2eds/bin/gnu/h-i686-mingw32/bin/../lib/gcc/nios2-elf/4.1.2/../../../../nios2-elf/lib\libc.a(lib_a-ctype_.o)
 .data          0x0084babc        0x0 d:/altera/13.0sp1/nios2eds/bin/gnu/h-i686-mingw32/bin/../lib/gcc/nios2-elf/4.1.2/../../../../nios2-elf/lib\libc.a(lib_a-exit.o)
 .data          0x0084babc        0x0 d:/altera/13.0sp1/nios2eds/bin/gnu/h-i686-mingw32/bin/../lib/gcc/nios2-elf/4.1.2/../../../../nios2-elf/lib\libc.a(lib_a-fprintf.o)
 .data          0x0084babc        0x0 d:/altera/13.0sp1/nios2eds/bin/gnu/h-i686-mingw32/bin/../lib/gcc/nios2-elf/4.1.2/../../../../nios2-elf/lib\libc.a(lib_a-fwrite.o)
 .data          0x0084babc        0x0 d:/altera/13.0sp1/nios2eds/bin/gnu/h-i686-mingw32/bin/../lib/gcc/nios2-elf/4.1.2/../../../../nios2-elf/lib\libc.a(lib_a-getc.o)
 .data          0x0084babc      0x400 d:/altera/13.0sp1/nios2eds/bin/gnu/h-i686-mingw32/bin/../lib/gcc/nios2-elf/4.1.2/../../../../nios2-elf/lib\libc.a(lib_a-impure.o)
 .data          0x0084bebc        0x0 d:/altera/13.0sp1/nios2eds/bin/gnu/h-i686-mingw32/bin/../lib/gcc/nios2-elf/4.1.2/../../../../nios2-elf/lib\libc.a(lib_a-malloc.o)
 .data          0x0084bebc      0x408 d:/altera/13.0sp1/nios2eds/bin/gnu/h-i686-mingw32/bin/../lib/gcc/nios2-elf/4.1.2/../../../../nios2-elf/lib\libc.a(lib_a-mallocr.o)
                0x0084bebc                __malloc_av_
 .data          0x0084c2c4        0x0 d:/altera/13.0sp1/nios2eds/bin/gnu/h-i686-mingw32/bin/../lib/gcc/nios2-elf/4.1.2/../../../../nios2-elf/lib\libc.a(lib_a-memcpy.o)
 .data          0x0084c2c4        0x0 d:/altera/13.0sp1/nios2eds/bin/gnu/h-i686-mingw32/bin/../lib/gcc/nios2-elf/4.1.2/../../../../nios2-elf/lib\libc.a(lib_a-memmove.o)
 .data          0x0084c2c4        0x0 d:/altera/13.0sp1/nios2eds/bin/gnu/h-i686-mingw32/bin/../lib/gcc/nios2-elf/4.1.2/../../../../nios2-elf/lib\libc.a(lib_a-memset.o)
 .data          0x0084c2c4        0x0 d:/altera/13.0sp1/nios2eds/bin/gnu/h-i686-mingw32/bin/../lib/gcc/nios2-elf/4.1.2/../../../../nios2-elf/lib\libc.a(lib_a-perror.o)
 .data          0x0084c2c4        0x0 d:/altera/13.0sp1/nios2eds/bin/gnu/h-i686-mingw32/bin/../lib/gcc/nios2-elf/4.1.2/../../../../nios2-elf/lib\libc.a(lib_a-printf.o)
 .data          0x0084c2c4        0x0 d:/altera/13.0sp1/nios2eds/bin/gnu/h-i686-mingw32/bin/../lib/gcc/nios2-elf/4.1.2/../../../../nios2-elf/lib\libc.a(lib_a-putc.o)
 .data          0x0084c2c4        0x0 d:/altera/13.0sp1/nios2eds/bin/gnu/h-i686-mingw32/bin/../lib/gcc/nios2-elf/4.1.2/../../../../nios2-elf/lib\libc.a(lib_a-putchar.o)
 .data          0x0084c2c4        0x0 d:/altera/13.0sp1/nios2eds/bin/gnu/h-i686-mingw32/bin/../lib/gcc/nios2-elf/4.1.2/../../../../nios2-elf/lib\libc.a(lib_a-puts.o)
 .data          0x0084c2c4        0x0 d:/altera/13.0sp1/nios2eds/bin/gnu/h-i686-mingw32/bin/../lib/gcc/nios2-elf/4.1.2/../../../../nios2-elf/lib\libc.a(lib_a-rget.o)
 .data          0x0084c2c4        0x0 d:/altera/13.0sp1/nios2eds/bin/gnu/h-i686-mingw32/bin/../lib/gcc/nios2-elf/4.1.2/../../../../nios2-elf/lib\libc.a(lib_a-sbrkr.o)
 .data          0x0084c2c4        0x0 d:/altera/13.0sp1/nios2eds/bin/gnu/h-i686-mingw32/bin/../lib/gcc/nios2-elf/4.1.2/../../../../nios2-elf/lib\libc.a(lib_a-strchr.o)
 .data          0x0084c2c4        0x0 d:/altera/13.0sp1/nios2eds/bin/gnu/h-i686-mingw32/bin/../lib/gcc/nios2-elf/4.1.2/../../../../nios2-elf/lib\libc.a(lib_a-strerror.o)
 .data          0x0084c2c4        0x0 d:/altera/13.0sp1/nios2eds/bin/gnu/h-i686-mingw32/bin/../lib/gcc/nios2-elf/4.1.2/../../../../nios2-elf/lib\libc.a(lib_a-strlen.o)
 .data          0x0084c2c4        0x0 d:/altera/13.0sp1/nios2eds/bin/gnu/h-i686-mingw32/bin/../lib/gcc/nios2-elf/4.1.2/../../../../nios2-elf/lib\libc.a(lib_a-u_strerr.o)
 .data          0x0084c2c4        0x0 d:/altera/13.0sp1/nios2eds/bin/gnu/h-i686-mingw32/bin/../lib/gcc/nios2-elf/4.1.2/../../../../nios2-elf/lib\libc.a(lib_a-vfprintf.o)
 .data          0x0084c2c4        0x0 d:/altera/13.0sp1/nios2eds/bin/gnu/h-i686-mingw32/bin/../lib/gcc/nios2-elf/4.1.2/../../../../nios2-elf/lib\libc.a(lib_a-wbuf.o)
 .data          0x0084c2c4        0x0 d:/altera/13.0sp1/nios2eds/bin/gnu/h-i686-mingw32/bin/../lib/gcc/nios2-elf/4.1.2/../../../../nios2-elf/lib\libc.a(lib_a-wsetup.o)
 .data          0x0084c2c4        0x0 d:/altera/13.0sp1/nios2eds/bin/gnu/h-i686-mingw32/bin/../lib/gcc/nios2-elf/4.1.2/../../../../nios2-elf/lib\libc.a(lib_a-__call_atexit.o)
 .data          0x0084c2c4        0x0 d:/altera/13.0sp1/nios2eds/bin/gnu/h-i686-mingw32/bin/../lib/gcc/nios2-elf/4.1.2/../../../../nios2-elf/lib\libc.a(lib_a-dtoa.o)
 .data          0x0084c2c4        0x0 d:/altera/13.0sp1/nios2eds/bin/gnu/h-i686-mingw32/bin/../lib/gcc/nios2-elf/4.1.2/../../../../nios2-elf/lib\libc.a(lib_a-fflush.o)
 .data          0x0084c2c4        0x0 d:/altera/13.0sp1/nios2eds/bin/gnu/h-i686-mingw32/bin/../lib/gcc/nios2-elf/4.1.2/../../../../nios2-elf/lib\libc.a(lib_a-findfp.o)
 .data          0x0084c2c4        0x0 d:/altera/13.0sp1/nios2eds/bin/gnu/h-i686-mingw32/bin/../lib/gcc/nios2-elf/4.1.2/../../../../nios2-elf/lib\libc.a(lib_a-fputc.o)
 .data          0x0084c2c4        0x0 d:/altera/13.0sp1/nios2eds/bin/gnu/h-i686-mingw32/bin/../lib/gcc/nios2-elf/4.1.2/../../../../nios2-elf/lib\libc.a(lib_a-fputs.o)
 .data          0x0084c2c4        0x0 d:/altera/13.0sp1/nios2eds/bin/gnu/h-i686-mingw32/bin/../lib/gcc/nios2-elf/4.1.2/../../../../nios2-elf/lib\libc.a(lib_a-freer.o)
 .data          0x0084c2c4        0x0 d:/altera/13.0sp1/nios2eds/bin/gnu/h-i686-mingw32/bin/../lib/gcc/nios2-elf/4.1.2/../../../../nios2-elf/lib\libc.a(lib_a-fvwrite.o)
 .data          0x0084c2c4        0x0 d:/altera/13.0sp1/nios2eds/bin/gnu/h-i686-mingw32/bin/../lib/gcc/nios2-elf/4.1.2/../../../../nios2-elf/lib\libc.a(lib_a-fwalk.o)
 .data          0x0084c2c4        0x0 d:/altera/13.0sp1/nios2eds/bin/gnu/h-i686-mingw32/bin/../lib/gcc/nios2-elf/4.1.2/../../../../nios2-elf/lib\libc.a(lib_a-int_errno.o)
 .data          0x0084c2c4        0xc d:/altera/13.0sp1/nios2eds/bin/gnu/h-i686-mingw32/bin/../lib/gcc/nios2-elf/4.1.2/../../../../nios2-elf/lib\libc.a(lib_a-locale.o)
                0x0084c2c4                __lc_ctype
 .data          0x0084c2d0        0x0 d:/altera/13.0sp1/nios2eds/bin/gnu/h-i686-mingw32/bin/../lib/gcc/nios2-elf/4.1.2/../../../../nios2-elf/lib\libc.a(lib_a-makebuf.o)
 .data          0x0084c2d0        0x0 d:/altera/13.0sp1/nios2eds/bin/gnu/h-i686-mingw32/bin/../lib/gcc/nios2-elf/4.1.2/../../../../nios2-elf/lib\libc.a(lib_a-memchr.o)
 .data          0x0084c2d0        0x0 d:/altera/13.0sp1/nios2eds/bin/gnu/h-i686-mingw32/bin/../lib/gcc/nios2-elf/4.1.2/../../../../nios2-elf/lib\libc.a(lib_a-mprec.o)
 .data          0x0084c2d0        0x0 d:/altera/13.0sp1/nios2eds/bin/gnu/h-i686-mingw32/bin/../lib/gcc/nios2-elf/4.1.2/../../../../nios2-elf/lib\libc.a(lib_a-reallocr.o)
 .data          0x0084c2d0        0x0 d:/altera/13.0sp1/nios2eds/bin/gnu/h-i686-mingw32/bin/../lib/gcc/nios2-elf/4.1.2/../../../../nios2-elf/lib\libc.a(lib_a-refill.o)
 .data          0x0084c2d0        0x0 d:/altera/13.0sp1/nios2eds/bin/gnu/h-i686-mingw32/bin/../lib/gcc/nios2-elf/4.1.2/../../../../nios2-elf/lib\libc.a(lib_a-s_isinfd.o)
 .data          0x0084c2d0        0x0 d:/altera/13.0sp1/nios2eds/bin/gnu/h-i686-mingw32/bin/../lib/gcc/nios2-elf/4.1.2/../../../../nios2-elf/lib\libc.a(lib_a-s_isnand.o)
 .data          0x0084c2d0        0x0 d:/altera/13.0sp1/nios2eds/bin/gnu/h-i686-mingw32/bin/../lib/gcc/nios2-elf/4.1.2/../../../../nios2-elf/lib\libc.a(lib_a-stdio.o)
 .data          0x0084c2d0        0x0 d:/altera/13.0sp1/nios2eds/bin/gnu/h-i686-mingw32/bin/../lib/gcc/nios2-elf/4.1.2/../../../../nios2-elf/lib\libc.a(lib_a-strcmp.o)
 .data          0x0084c2d0        0x0 d:/altera/13.0sp1/nios2eds/bin/gnu/h-i686-mingw32/bin/../lib/gcc/nios2-elf/4.1.2/../../../../nios2-elf/lib\libc.a(lib_a-writer.o)
 .data          0x0084c2d0        0x0 d:/altera/13.0sp1/nios2eds/bin/gnu/h-i686-mingw32/bin/../lib/gcc/nios2-elf/4.1.2/../../../../nios2-elf/lib\libc.a(lib_a-callocr.o)
 .data          0x0084c2d0        0x0 d:/altera/13.0sp1/nios2eds/bin/gnu/h-i686-mingw32/bin/../lib/gcc/nios2-elf/4.1.2/../../../../nios2-elf/lib\libc.a(lib_a-closer.o)
 .data          0x0084c2d0        0x0 d:/altera/13.0sp1/nios2eds/bin/gnu/h-i686-mingw32/bin/../lib/gcc/nios2-elf/4.1.2/../../../../nios2-elf/lib\libc.a(lib_a-fclose.o)
 .data          0x0084c2d0        0x0 d:/altera/13.0sp1/nios2eds/bin/gnu/h-i686-mingw32/bin/../lib/gcc/nios2-elf/4.1.2/../../../../nios2-elf/lib\libc.a(lib_a-fstatr.o)
 .data          0x0084c2d0        0x0 d:/altera/13.0sp1/nios2eds/bin/gnu/h-i686-mingw32/bin/../lib/gcc/nios2-elf/4.1.2/../../../../nios2-elf/lib\libc.a(lib_a-isattyr.o)
 .data          0x0084c2d0        0x0 d:/altera/13.0sp1/nios2eds/bin/gnu/h-i686-mingw32/bin/../lib/gcc/nios2-elf/4.1.2/../../../../nios2-elf/lib\libc.a(lib_a-lseekr.o)
 .data          0x0084c2d0        0x0 d:/altera/13.0sp1/nios2eds/bin/gnu/h-i686-mingw32/bin/../lib/gcc/nios2-elf/4.1.2/../../../../nios2-elf/lib\libc.a(lib_a-readr.o)
 .data          0x0084c2d0        0x0 d:/altera/13.0sp1/nios2eds/bin/gnu/h-i686-mingw32/bin/../lib/gcc/nios2-elf/4.1.2\libgcc.a(_udivdi3.o)
 .data          0x0084c2d0        0x0 d:/altera/13.0sp1/nios2eds/bin/gnu/h-i686-mingw32/bin/../lib/gcc/nios2-elf/4.1.2\libgcc.a(_umoddi3.o)
 .data          0x0084c2d0        0x0 d:/altera/13.0sp1/nios2eds/bin/gnu/h-i686-mingw32/bin/../lib/gcc/nios2-elf/4.1.2\libgcc.a(_div_df.o)
 .data          0x0084c2d0        0x0 d:/altera/13.0sp1/nios2eds/bin/gnu/h-i686-mingw32/bin/../lib/gcc/nios2-elf/4.1.2\libgcc.a(_eq_df.o)
 .data          0x0084c2d0        0x0 d:/altera/13.0sp1/nios2eds/bin/gnu/h-i686-mingw32/bin/../lib/gcc/nios2-elf/4.1.2\libgcc.a(_ne_df.o)
 .data          0x0084c2d0        0x0 d:/altera/13.0sp1/nios2eds/bin/gnu/h-i686-mingw32/bin/../lib/gcc/nios2-elf/4.1.2\libgcc.a(_gt_df.o)
 .data          0x0084c2d0        0x0 d:/altera/13.0sp1/nios2eds/bin/gnu/h-i686-mingw32/bin/../lib/gcc/nios2-elf/4.1.2\libgcc.a(_lt_df.o)
 .data          0x0084c2d0        0x0 d:/altera/13.0sp1/nios2eds/bin/gnu/h-i686-mingw32/bin/../lib/gcc/nios2-elf/4.1.2\libgcc.a(_si_to_df.o)
 .data          0x0084c2d0        0x0 d:/altera/13.0sp1/nios2eds/bin/gnu/h-i686-mingw32/bin/../lib/gcc/nios2-elf/4.1.2\libgcc.a(lib2-divmod.o)
 .data          0x0084c2d0        0x0 ../fir_bsp/\libucosii_bsp.a(alt_exit.o)
 .data          0x0084c2d0        0x0 ../fir_bsp/\libucosii_bsp.a(alt_flash_dev.o)
 .data          0x0084c2d0        0x0 ../fir_bsp/\libucosii_bsp.a(alt_fstat.o)
 .data          0x0084c2d0        0x0 ../fir_bsp/\libucosii_bsp.a(alt_irq_register.o)
 .data          0x0084c2d0        0x0 ../fir_bsp/\libucosii_bsp.a(alt_irq_vars.o)
 .data          0x0084c2d0        0x0 ../fir_bsp/\libucosii_bsp.a(alt_isatty.o)
 .data          0x0084c2d0        0x0 ../fir_bsp/\libucosii_bsp.a(alt_lseek.o)
 .data          0x0084c2d0        0x0 ../fir_bsp/\libucosii_bsp.a(alt_main.o)
 .data          0x0084c2d0        0x0 ../fir_bsp/\libucosii_bsp.a(alt_sbrk.o)
 .data          0x0084c2d0        0x0 ../fir_bsp/\libucosii_bsp.a(alt_usleep.o)
 .data          0x0084c2d0        0x0 ../fir_bsp/\libucosii_bsp.a(alt_env_lock.o)
 .data          0x0084c2d0        0x0 ../fir_bsp/\libucosii_bsp.a(alt_malloc_lock.o)
 .data          0x0084c2d0        0x0 ../fir_bsp/\libucosii_bsp.a(os_core.o)
 .data          0x0084c2d0        0x0 ../fir_bsp/\libucosii_bsp.a(os_dbg.o)
 .data          0x0084c2d0        0x0 ../fir_bsp/\libucosii_bsp.a(os_flag.o)
 .data          0x0084c2d0        0x0 ../fir_bsp/\libucosii_bsp.a(os_mem.o)
 .data          0x0084c2d0        0x0 ../fir_bsp/\libucosii_bsp.a(os_q.o)
 .data          0x0084c2d0        0x0 ../fir_bsp/\libucosii_bsp.a(os_sem.o)
 .data          0x0084c2d0        0x0 ../fir_bsp/\libucosii_bsp.a(os_task.o)
 .data          0x0084c2d0        0x0 ../fir_bsp/\libucosii_bsp.a(os_time.o)
 .data          0x0084c2d0     0x1400 ../fir_bsp/\libucosii_bsp.a(alt_sys_init.o)
 .data          0x0084d6d0        0x0 ../fir_bsp/\libucosii_bsp.a(altera_avalon_cfi_flash.o)
 .data          0x0084d6d0        0x0 ../fir_bsp/\libucosii_bsp.a(altera_avalon_cfi_flash_table.o)
 .data          0x0084d6d0        0x0 ../fir_bsp/\libucosii_bsp.a(altera_avalon_epcs_flash_controller.o)
 .data          0x0084d6d0        0x0 ../fir_bsp/\libucosii_bsp.a(altera_avalon_jtag_uart_fd.o)
 .data          0x0084d6d0        0x0 ../fir_bsp/\libucosii_bsp.a(altera_avalon_jtag_uart_init.o)
 .data          0x0084d6d0        0x0 ../fir_bsp/\libucosii_bsp.a(altera_avalon_jtag_uart_ioctl.o)
 .data          0x0084d6d0        0x0 ../fir_bsp/\libucosii_bsp.a(altera_avalon_jtag_uart_read.o)
 .data          0x0084d6d0        0x0 ../fir_bsp/\libucosii_bsp.a(altera_avalon_jtag_uart_write.o)
 .data          0x0084d6d0        0x0 ../fir_bsp/\libucosii_bsp.a(altera_avalon_lcd_16207.o)
 .data          0x0084d6d0        0x0 ../fir_bsp/\libucosii_bsp.a(altera_avalon_lcd_16207_fd.o)
 .data          0x0084d6d0        0x0 ../fir_bsp/\libucosii_bsp.a(altera_avalon_timer_sc.o)
 .data          0x0084d6d0        0x0 ../fir_bsp/\libucosii_bsp.a(altera_avalon_uart_fd.o)
 .data          0x0084d6d0        0x0 ../fir_bsp/\libucosii_bsp.a(altera_avalon_uart_init.o)
 .data          0x0084d6d0        0x0 ../fir_bsp/\libucosii_bsp.a(altera_avalon_uart_read.o)
 .data          0x0084d6d0        0x0 ../fir_bsp/\libucosii_bsp.a(altera_avalon_uart_write.o)
 .data          0x0084d6d0        0x0 ../fir_bsp/\libucosii_bsp.a(epcs_commands.o)
 .data          0x0084d6d0        0x0 ../fir_bsp/\libucosii_bsp.a(alt_iniche_close.o)
 .data          0x0084d6d0        0x0 ../fir_bsp/\libucosii_bsp.a(alt_iniche_dev.o)
 .data          0x0084d6d0        0x0 ../fir_bsp/\libucosii_bsp.a(alt_iniche_read.o)
 .data          0x0084d6d0        0x0 ../fir_bsp/\libucosii_bsp.a(alt_iniche_write.o)
 .data          0x0084d6d0        0x0 ../fir_bsp/\libucosii_bsp.a(ipnet.o)
 .data          0x0084d6d0        0x0 ../fir_bsp/\libucosii_bsp.a(ipstart.o)
 .data          0x0084d6d0        0x0 ../fir_bsp/\libucosii_bsp.a(igmp_cmn.o)
 .data          0x0084d6d0        0x0 ../fir_bsp/\libucosii_bsp.a(bsdsock.o)
 .data          0x0084d6d0        0x0 ../fir_bsp/\libucosii_bsp.a(cksum.o)
 .data          0x0084d6d0        0x0 ../fir_bsp/\libucosii_bsp.a(in_utils.o)
 .data          0x0084d6d0        0x0 ../fir_bsp/\libucosii_bsp.a(parseip.o)
 .data          0x0084d6d0        0x0 ../fir_bsp/\libucosii_bsp.a(tk_crnos.o)
 .data          0x0084d6d0        0x0 ../fir_bsp/\libucosii_bsp.a(pktalloc.o)
 .data          0x0084d6d0        0x0 ../fir_bsp/\libucosii_bsp.a(q.o)
 .data          0x0084d6d0        0x0 ../fir_bsp/\libucosii_bsp.a(asm_cksum.o)
 .data          0x0084d6d0        0x0 ../fir_bsp/\libucosii_bsp.a(brdutils.o)
 .data          0x0084d6d0        0x0 ../fir_bsp/\libucosii_bsp.a(osportco.o)
 .data          0x0084d6d0        0x0 ../fir_bsp/\libucosii_bsp.a(targnios.o)
 .data          0x0084d6d0       0x48 ../fir_bsp/\libucosii_bsp.a(nptcp.o)
                0x0084d6d0                tcp_protosw
                0x0084d6e8                udp_protosw
                0x0084d700                rawip_protosw
 .data          0x0084d718        0x0 ../fir_bsp/\libucosii_bsp.a(rawsock.o)
 .data          0x0084d718        0x0 ../fir_bsp/\libucosii_bsp.a(sockcall.o)
 .data          0x0084d718        0x0 ../fir_bsp/\libucosii_bsp.a(socket.o)
 .data          0x0084d718        0x0 ../fir_bsp/\libucosii_bsp.a(socket2.o)
 .data          0x0084d718        0x0 ../fir_bsp/\libucosii_bsp.a(soselect.o)
 .data          0x0084d718        0x0 ../fir_bsp/\libucosii_bsp.a(tcp_in.o)
 .data          0x0084d718        0xb ../fir_bsp/\libucosii_bsp.a(tcp_out.o)
                0x0084d718                tcp_outflags
 .data          0x0084d723        0x0 ../fir_bsp/\libucosii_bsp.a(tcp_subr.o)
 .data          0x0084d723        0xd ../fir_bsp/\libucosii_bsp.a(tcp_timr.o)
                0x0084d723                tcp_backoff
 .data          0x0084d730        0x0 ../fir_bsp/\libucosii_bsp.a(tcp_usr.o)
 .data          0x0084d730        0x0 ../fir_bsp/\libucosii_bsp.a(tcpport.o)
 .data          0x0084d730        0x0 ../fir_bsp/\libucosii_bsp.a(udpsock.o)
 .data          0x0084d730        0x0 ../fir_bsp/\libucosii_bsp.a(alt_alarm_start.o)
 .data          0x0084d730        0x0 ../fir_bsp/\libucosii_bsp.a(alt_busy_sleep.o)
 .data          0x0084d730        0x0 ../fir_bsp/\libucosii_bsp.a(alt_close.o)
 .data          0x0084d730        0x0 ../fir_bsp/\libucosii_bsp.a(alt_dcache_flush.o)
 .data          0x0084d730      0x1a8 ../fir_bsp/\libucosii_bsp.a(alt_dev.o)
                0x0084d730                alt_dev_null
                0x0084d758                alt_fd_list
 .data          0x0084d8d8        0x0 ../fir_bsp/\libucosii_bsp.a(alt_dev_llist_insert.o)
 .data          0x0084d8d8        0x0 ../fir_bsp/\libucosii_bsp.a(alt_do_ctors.o)
 .data          0x0084d8d8        0x0 ../fir_bsp/\libucosii_bsp.a(alt_do_dtors.o)
 .data          0x0084d8d8        0x0 ../fir_bsp/\libucosii_bsp.a(alt_errno.o)
 .data          0x0084d8d8        0x0 ../fir_bsp/\libucosii_bsp.a(alt_find_dev.o)
 .data          0x0084d8d8        0x0 ../fir_bsp/\libucosii_bsp.a(alt_iic.o)
 .data          0x0084d8d8        0x0 ../fir_bsp/\libucosii_bsp.a(alt_iic_isr_register.o)
 .data          0x0084d8d8        0x0 ../fir_bsp/\libucosii_bsp.a(alt_io_redirect.o)
 .data          0x0084d8d8        0x0 ../fir_bsp/\libucosii_bsp.a(alt_irq_entry.o)
 .data          0x0084d8d8        0x0 ../fir_bsp/\libucosii_bsp.a(alt_irq_handler.o)
 .data          0x0084d8d8        0x0 ../fir_bsp/\libucosii_bsp.a(alt_open.o)
 .data          0x0084d8d8        0x0 ../fir_bsp/\libucosii_bsp.a(alt_read.o)
 .data          0x0084d8d8        0x0 ../fir_bsp/\libucosii_bsp.a(alt_release_fd.o)
 .data          0x0084d8d8        0x0 ../fir_bsp/\libucosii_bsp.a(alt_remap_cached.o)
 .data          0x0084d8d8        0x0 ../fir_bsp/\libucosii_bsp.a(alt_remap_uncached.o)
 .data          0x0084d8d8        0x0 ../fir_bsp/\libucosii_bsp.a(alt_tick.o)
 .data          0x0084d8d8        0x0 ../fir_bsp/\libucosii_bsp.a(alt_write.o)
 .data          0x0084d8d8        0x0 ../fir_bsp/\libucosii_bsp.a(altera_nios2_qsys_irq.o)
 .data          0x0084d8d8        0x0 ../fir_bsp/\libucosii_bsp.a(os_cpu_a.o)
 .data          0x0084d8d8        0x0 ../fir_bsp/\libucosii_bsp.a(os_cpu_c.o)
 .data          0x0084d8d8        0x0 ../fir_bsp/\libucosii_bsp.a(altera_avalon_cfi_flash_amd.o)
 .data          0x0084d8d8        0x0 ../fir_bsp/\libucosii_bsp.a(altera_avalon_cfi_flash_intel.o)
 .data          0x0084d8d8        0x0 ../fir_bsp/\libucosii_bsp.a(altera_avalon_spi.o)
 .data          0x0084d8d8       0x18 ../fir_bsp/\libucosii_bsp.a(allports.o)
                0x0084d8d8                icmpdu_types
 .data          0x0084d8f0        0x0 ../fir_bsp/\libucosii_bsp.a(tk_misc.o)
 .data          0x0084d8f0        0x0 ../fir_bsp/\libucosii_bsp.a(alt_iniche_fcntl.o)
 .data          0x0084d8f0        0x0 ../fir_bsp/\libucosii_bsp.a(et_arp.o)
 .data          0x0084d8f0        0x0 ../fir_bsp/\libucosii_bsp.a(iface.o)
 .data          0x0084d8f0        0x0 ../fir_bsp/\libucosii_bsp.a(ip.o)
 .data          0x0084d8f0        0x0 ../fir_bsp/\libucosii_bsp.a(ipdemux.o)
 .data          0x0084d8f0        0x0 ../fir_bsp/\libucosii_bsp.a(ipmc.o)
 .data          0x0084d8f0        0x0 ../fir_bsp/\libucosii_bsp.a(ipport.o)
 .data          0x0084d8f0        0x0 ../fir_bsp/\libucosii_bsp.a(ipraw.o)
 .data          0x0084d8f0        0x9 ../fir_bsp/\libucosii_bsp.a(iproute.o)
                0x0084d8f0                rtp_priority
 .data          0x0084d8f9        0x0 ../fir_bsp/\libucosii_bsp.a(udp.o)
 .data          0x0084d8f9        0x0 ../fir_bsp/\libucosii_bsp.a(igmp.o)
 .data          0x0084d8f9        0x0 ../fir_bsp/\libucosii_bsp.a(igmp2.o)
 .data          0x0084d8f9        0x0 ../fir_bsp/\libucosii_bsp.a(ipopt.o)
 .data          0x0084d8f9        0x0 ../fir_bsp/\libucosii_bsp.a(u_mctest.o)
 .data          0x0084d8f9        0x0 ../fir_bsp/\libucosii_bsp.a(dhcsetup.o)
 *fill*         0x0084d8f9        0x3 00
 .data          0x0084d8fc       0xd4 ../fir_bsp/\libucosii_bsp.a(memdev.o)
                0x0084d8fc                mdio
                0x0084d920                mdlist
 .data          0x0084d9d0       0x30 ../fir_bsp/\libucosii_bsp.a(netmain.o)
                0x0084d9d0                nettasks
 .data          0x0084da00        0x0 ../fir_bsp/\libucosii_bsp.a(tcpcksum.o)
 .data          0x0084da00        0x0 ../fir_bsp/\libucosii_bsp.a(dhcpclnt.o)
 .data          0x0084da00        0x0 ../fir_bsp/\libucosii_bsp.a(dhcputil.o)
 .data          0x0084da00        0x0 ../fir_bsp/\libucosii_bsp.a(udp_open.o)
 .data          0x0084da00        0x0 ../fir_bsp/\libucosii_bsp.a(in_pcb.o)
 .data          0x0084da00       0x80 ../fir_bsp/\libucosii_bsp.a(vfsfiles.o)
                0x0084da00                vfs_root_path
 .data          0x0084da80        0x0 ../fir_bsp/\libucosii_bsp.a(vfsport.o)
 .data          0x0084da80        0x0 ../fir_bsp/\libucosii_bsp.a(alt_exception_entry.o)
 .data          0x0084da80        0x0 ../fir_bsp/\libucosii_bsp.a(alt_fcntl.o)
 .data          0x0084da80        0x0 ../fir_bsp/\libucosii_bsp.a(alt_find_file.o)
 .data          0x0084da80        0x0 ../fir_bsp/\libucosii_bsp.a(alt_get_fd.o)
 .data          0x0084da80        0x0 ../fir_bsp/\libucosii_bsp.a(timeouts.o)
 .data          0x0084da80       0x18 ../fir_bsp/\libucosii_bsp.a(icmp.o)
 .data          0x0084da98        0x0 ../fir_bsp/\libucosii_bsp.a(ip_reasm.o)
 .data          0x0084da98        0x0 d:/altera/13.0sp1/nios2eds/bin/gnu/h-i686-mingw32/bin/../lib/gcc/nios2-elf/4.1.2/../../../../nios2-elf/lib\libc.a(lib_a-atexit.o)
 .data          0x0084da98        0x0 d:/altera/13.0sp1/nios2eds/bin/gnu/h-i686-mingw32/bin/../lib/gcc/nios2-elf/4.1.2/../../../../nios2-elf/lib\libc.a(lib_a-atoi.o)
 .data          0x0084da98        0x0 d:/altera/13.0sp1/nios2eds/bin/gnu/h-i686-mingw32/bin/../lib/gcc/nios2-elf/4.1.2/../../../../nios2-elf/lib\libc.a(lib_a-calloc.o)
 .data          0x0084da98        0x0 d:/altera/13.0sp1/nios2eds/bin/gnu/h-i686-mingw32/bin/../lib/gcc/nios2-elf/4.1.2/../../../../nios2-elf/lib\libc.a(lib_a-memcmp.o)
 .data          0x0084da98        0x0 d:/altera/13.0sp1/nios2eds/bin/gnu/h-i686-mingw32/bin/../lib/gcc/nios2-elf/4.1.2/../../../../nios2-elf/lib\libc.a(lib_a-sprintf.o)
 .data          0x0084da98        0x0 d:/altera/13.0sp1/nios2eds/bin/gnu/h-i686-mingw32/bin/../lib/gcc/nios2-elf/4.1.2/../../../../nios2-elf/lib\libc.a(lib_a-strcpy.o)
 .data          0x0084da98        0x0 d:/altera/13.0sp1/nios2eds/bin/gnu/h-i686-mingw32/bin/../lib/gcc/nios2-elf/4.1.2/../../../../nios2-elf/lib\libc.a(lib_a-strncmp.o)
 .data          0x0084da98        0x0 d:/altera/13.0sp1/nios2eds/bin/gnu/h-i686-mingw32/bin/../lib/gcc/nios2-elf/4.1.2/../../../../nios2-elf/lib\libc.a(lib_a-strncpy.o)
 .data          0x0084da98        0x0 d:/altera/13.0sp1/nios2eds/bin/gnu/h-i686-mingw32/bin/../lib/gcc/nios2-elf/4.1.2/../../../../nios2-elf/lib\libc.a(lib_a-strtol.o)
 .data          0x0084da98        0x0 d:/altera/13.0sp1/nios2eds/bin/gnu/h-i686-mingw32/bin/../lib/gcc/nios2-elf/4.1.2/../../../../nios2-elf/lib\libc.a(lib_a-vprintf.o)
 .data          0x0084da98        0x0 d:/altera/13.0sp1/nios2eds/bin/gnu/h-i686-mingw32/bin/../lib/gcc/nios2-elf/4.1.2/../../../../nios2-elf/lib\libc.a(lib_a-vsprintf.o)
 .data          0x0084da98        0x0 d:/altera/13.0sp1/nios2eds/bin/gnu/h-i686-mingw32/bin/../lib/gcc/nios2-elf/4.1.2/../../../../nios2-elf/lib\libc.a(lib_a-__atexit.o)
                0x00855a98                _gp = ABSOLUTE ((. + 0x8000))
                0x00855a98                PROVIDE (gp, _gp)
 *(.rwdata .rwdata.*)
 *(.sdata .sdata.* .gnu.linkonce.s.*)
 .sdata         0x0084da98        0x4 d:/altera/13.0sp1/nios2eds/bin/gnu/h-i686-mingw32/bin/../lib/gcc/nios2-elf/4.1.2/../../../../nios2-elf/lib\libc.a(lib_a-ctype_.o)
                0x0084da98                __ctype_ptr
 .sdata         0x0084da9c        0x8 d:/altera/13.0sp1/nios2eds/bin/gnu/h-i686-mingw32/bin/../lib/gcc/nios2-elf/4.1.2/../../../../nios2-elf/lib\libc.a(lib_a-impure.o)
                0x0084da9c                _impure_ptr
                0x0084daa0                _global_impure_ptr
 .sdata         0x0084daa4        0x8 d:/altera/13.0sp1/nios2eds/bin/gnu/h-i686-mingw32/bin/../lib/gcc/nios2-elf/4.1.2/../../../../nios2-elf/lib\libc.a(lib_a-mallocr.o)
                0x0084daa4                __malloc_trim_threshold
                0x0084daa8                __malloc_sbrk_base
 .sdata         0x0084daac        0x8 d:/altera/13.0sp1/nios2eds/bin/gnu/h-i686-mingw32/bin/../lib/gcc/nios2-elf/4.1.2/../../../../nios2-elf/lib\libc.a(lib_a-locale.o)
                0x0084daac                __mb_cur_max
 .sdata         0x0084dab4        0x8 ../fir_bsp/\libucosii_bsp.a(alt_flash_dev.o)
                0x0084dab4                alt_flash_dev_list
 .sdata         0x0084dabc        0x4 ../fir_bsp/\libucosii_bsp.a(alt_irq_vars.o)
                0x0084dabc                alt_priority_mask
 .sdata         0x0084dac0        0x4 ../fir_bsp/\libucosii_bsp.a(alt_sbrk.o)
 .sdata         0x0084dac4        0x4 ../fir_bsp/\libucosii_bsp.a(alt_env_lock.o)
 .sdata         0x0084dac8        0x4 ../fir_bsp/\libucosii_bsp.a(alt_malloc_lock.o)
 .sdata         0x0084dacc       0x74 ../fir_bsp/\libucosii_bsp.a(os_dbg.o)
                0x0084dacc                OSDebugEn
                0x0084dad0                OSEndiannessTest
                0x0084dad4                OSEventEn
                0x0084dad6                OSEventMax
                0x0084dad8                OSEventNameSize
                0x0084dada                OSEventSize
                0x0084dadc                OSEventTblSize
                0x0084dade                OSEventMultiEn
                0x0084dae0                OSFlagEn
                0x0084dae2                OSFlagGrpSize
                0x0084dae4                OSFlagNodeSize
                0x0084dae6                OSFlagWidth
                0x0084dae8                OSFlagMax
                0x0084daea                OSFlagNameSize
                0x0084daec                OSLowestPrio
                0x0084daee                OSMboxEn
                0x0084daf0                OSMemEn
                0x0084daf2                OSMemMax
                0x0084daf4                OSMemNameSize
                0x0084daf6                OSMemSize
                0x0084daf8                OSMemTblSize
                0x0084dafa                OSMutexEn
                0x0084dafc                OSPtrSize
                0x0084dafe                OSQEn
                0x0084db00                OSQMax
                0x0084db02                OSQSize
                0x0084db04                OSRdyTblSize
                0x0084db06                OSSemEn
                0x0084db08                OSStkWidth
                0x0084db0a                OSTaskCreateEn
                0x0084db0c                OSTaskCreateExtEn
                0x0084db0e                OSTaskDelEn
                0x0084db10                OSTaskIdleStkSize
                0x0084db12                OSTaskProfileEn
                0x0084db14                OSTaskMax
                0x0084db16                OSTaskNameSize
                0x0084db18                OSTaskStatEn
                0x0084db1a                OSTaskStatStkSize
                0x0084db1c                OSTaskStatStkChkEn
                0x0084db1e                OSTaskSwHookEn
                0x0084db20                OSTCBPrioTblMax
                0x0084db22                OSTCBSize
                0x0084db24                OSTicksPerSec
                0x0084db26                OSTimeTickHookEn
                0x0084db28                OSVersionNbr
                0x0084db2a                OSTmrEn
                0x0084db2c                OSTmrCfgMax
                0x0084db2e                OSTmrCfgNameSize
                0x0084db30                OSTmrCfgWheelSize
                0x0084db32                OSTmrCfgTicksPerSec
                0x0084db34                OSTmrSize
                0x0084db36                OSTmrTblSize
                0x0084db38                OSTmrWheelSize
                0x0084db3a                OSTmrWheelTblSize
                0x0084db3c                OSDataSize
 .sdata         0x0084db40        0x4 ../fir_bsp/\libucosii_bsp.a(altera_avalon_lcd_16207.o)
 .sdata         0x0084db44        0x8 ../fir_bsp/\libucosii_bsp.a(alt_iniche_dev.o)
                0x0084db44                alt_iniche_dev_list
 .sdata         0x0084db4c        0x4 ../fir_bsp/\libucosii_bsp.a(ipstart.o)
                0x0084db4c                ipmcfail_str
 .sdata         0x0084db50        0x4 ../fir_bsp/\libucosii_bsp.a(cksum.o)
 .sdata         0x0084db54        0x4 ../fir_bsp/\libucosii_bsp.a(parseip.o)
                0x0084db54                pton_error
 .sdata         0x0084db58       0x10 ../fir_bsp/\libucosii_bsp.a(pktalloc.o)
                0x0084db58                lilbufs
                0x0084db5c                lilbufsiz
                0x0084db60                bigbufs
                0x0084db64                bigbufsiz
 .sdata         0x0084db68        0x4 ../fir_bsp/\libucosii_bsp.a(brdutils.o)
                0x0084db68                kb_last
 .sdata         0x0084db6c        0x4 ../fir_bsp/\libucosii_bsp.a(nptcp.o)
                0x0084db6c                TCPTV_MSL
 .sdata         0x0084db70        0x2 ../fir_bsp/\libucosii_bsp.a(socket.o)
                0x0084db70                socket_defaults
 .sdata         0x0084db72        0x1 ../fir_bsp/\libucosii_bsp.a(tcp_in.o)
                0x0084db72                tcprexmtthresh
 *fill*         0x0084db73        0x1 00
 .sdata         0x0084db74        0x4 ../fir_bsp/\libucosii_bsp.a(tcp_subr.o)
                0x0084db74                tcp_ttl
 .sdata         0x0084db78        0x8 ../fir_bsp/\libucosii_bsp.a(tcp_timr.o)
                0x0084db78                tcp_keepidle
                0x0084db7c                tcp_keepintvl
 .sdata         0x0084db80        0x8 ../fir_bsp/\libucosii_bsp.a(tcp_usr.o)
                0x0084db80                tcp_sendspace
                0x0084db84                tcp_recvspace
 .sdata         0x0084db88       0x14 ../fir_bsp/\libucosii_bsp.a(alt_dev.o)
                0x0084db88                alt_fs_list
                0x0084db90                alt_dev_list
                0x0084db98                alt_max_fd
 .sdata         0x0084db9c        0x4 ../fir_bsp/\libucosii_bsp.a(alt_errno.o)
                0x0084db9c                alt_errno
 .sdata         0x0084dba0        0x8 ../fir_bsp/\libucosii_bsp.a(alt_tick.o)
                0x0084dba0                alt_alarm_list
 .sdata         0x0084dba8       0x10 ../fir_bsp/\libucosii_bsp.a(allports.o)
                0x0084dba8                name
                0x0084dbac                prompt
                0x0084dbb0                pingdelay
                0x0084dbb4                deflength
 .sdata         0x0084dbb8        0x4 ../fir_bsp/\libucosii_bsp.a(et_arp.o)
                0x0084dbb8                arp_ageout
 .sdata         0x0084dbbc        0x8 ../fir_bsp/\libucosii_bsp.a(ip.o)
                0x0084dbc0                ipRoutes
 .sdata         0x0084dbc4        0x4 ../fir_bsp/\libucosii_bsp.a(u_mctest.o)
 .sdata         0x0084dbc8        0x4 ../fir_bsp/\libucosii_bsp.a(memdev.o)
                0x0084dbc8                mdlist_size
 .sdata         0x0084dbcc        0x4 ../fir_bsp/\libucosii_bsp.a(netmain.o)
                0x0084dbcc                num_net_tasks
 .sdata         0x0084dbd0        0xc ../fir_bsp/\libucosii_bsp.a(dhcpclnt.o)
                0x0084dbd0                xids
                0x0084dbd4                reqlist
                0x0084dbd8                reqlist_len
 .sdata         0x0084dbdc        0x4 ../fir_bsp/\libucosii_bsp.a(vfsfiles.o)
                0x0084dbdc                http_root_path
 *(.sdata2 .sdata2.* .gnu.linkonce.s2.*)
                0x0084dbe0                . = ALIGN (0x4)
                0x0084dbe0                _edata = ABSOLUTE (.)
                0x0084dbe0                PROVIDE (edata, ABSOLUTE (.))
                0x0084dbe0                PROVIDE (__ram_rwdata_end, ABSOLUTE (.))
                0x0084baa4                PROVIDE (__flash_rwdata_start, LOADADDR (.rwdata))

.bss            0x0084dbe0     0xaa24
                0x0084dbe0                __bss_start = ABSOLUTE (.)
                0x0084dbe0                PROVIDE (__sbss_start, ABSOLUTE (.))
                0x0084dbe0                PROVIDE (___sbss_start, ABSOLUTE (.))
 *(.dynsbss)
 *(.sbss .sbss.* .gnu.linkonce.sb.*)
 .sbss          0x0084dbe0        0x8 obj/default/SSS_DE2_115.o
                0x0084dbe0                last_flash_sector_offset
                0x0084dbe4                last_flash_sector
 .sbss          0x0084dbe8        0x8 obj/default/dm9000a.o
                0x0084dbe8                autoReset
                0x0084dbec                netisrs
 .sbss          0x0084dbf0        0x1 obj/default/iniche_init.o
                0x0084dbf0                to_ssstask
 *fill*         0x0084dbf1        0x3 00
 .sbss          0x0084dbf4       0x10 obj/default/simple_socket_server.o
                0x0084dbf8                SSSLEDCommandQ
                0x0084dbfc                SSSLEDLightshowSem
                0x0084dc00                SSSLEDEventFlag
 .sbss          0x0084dc04        0xc d:/altera/13.0sp1/nios2eds/bin/gnu/h-i686-mingw32/bin/../lib/gcc/nios2-elf/4.1.2/../../../../nios2-elf/lib\libc.a(lib_a-mallocr.o)
                0x0084dc04                __malloc_top_pad
                0x0084dc08                __malloc_max_sbrked_mem
                0x0084dc0c                __malloc_max_total_mem
 .sbss          0x0084dc10        0x4 d:/altera/13.0sp1/nios2eds/bin/gnu/h-i686-mingw32/bin/../lib/gcc/nios2-elf/4.1.2/../../../../nios2-elf/lib\libc.a(lib_a-int_errno.o)
                0x0084dc10                errno
 .sbss          0x0084dc14        0xc d:/altera/13.0sp1/nios2eds/bin/gnu/h-i686-mingw32/bin/../lib/gcc/nios2-elf/4.1.2/../../../../nios2-elf/lib\libc.a(lib_a-locale.o)
                0x0084dc14                __nlocale_changed
                0x0084dc18                __mlocale_changed
                0x0084dc1c                _PathLocale
 .sbss          0x0084dc20        0x4 ../fir_bsp/\libucosii_bsp.a(alt_irq_vars.o)
                0x0084dc20                alt_irq_active
 .sbss          0x0084dc24        0xc ../fir_bsp/\libucosii_bsp.a(alt_main.o)
                0x0084dc24                alt_argc
                0x0084dc28                alt_argv
                0x0084dc2c                alt_envp
 .sbss          0x0084dc30        0x8 ../fir_bsp/\libucosii_bsp.a(alt_env_lock.o)
                0x0084dc34                alt_envsem
 .sbss          0x0084dc38        0x8 ../fir_bsp/\libucosii_bsp.a(alt_malloc_lock.o)
                0x0084dc3c                alt_heapsem
 .sbss          0x0084dc40       0x50 ../fir_bsp/\libucosii_bsp.a(os_core.o)
                0x0084dc40                OSLockNesting
                0x0084dc41                OSRunning
                0x0084dc44                OSIdleCtr
                0x0084dc48                OSPrioHighRdy
                0x0084dc49                OSPrioCur
                0x0084dc4c                OSTCBList
                0x0084dc50                OSTickStepState
                0x0084dc54                OSCtxSwCtr
                0x0084dc58                OSIdleCtrMax
                0x0084dc5c                OSTCBFreeList
                0x0084dc60                OSCPUUsage
                0x0084dc61                OSTaskCtr
                0x0084dc64                OSMemFreeList
                0x0084dc68                OSTCBHighRdy
                0x0084dc6c                OSQFreeList
                0x0084dc70                OSRdyGrp
                0x0084dc71                OSRdyTbl
                0x0084dc74                OSEventFreeList
                0x0084dc78                OSIntNesting
                0x0084dc7c                OSTCBCur
                0x0084dc80                OSTime
                0x0084dc84                OSFlagFreeList
                0x0084dc88                OSStatRdy
                0x0084dc8c                OSIdleCtrRun
 .sbss          0x0084dc90        0xc ../fir_bsp/\libucosii_bsp.a(ipnet.o)
                0x0084dc90                MaxLnh
                0x0084dc94                MaxMtu
                0x0084dc98                NDEBUG
 .sbss          0x0084dc9c        0x8 ../fir_bsp/\libucosii_bsp.a(ipstart.o)
                0x0084dc9c                ifNumber
 .sbss          0x0084dca4       0x10 ../fir_bsp/\libucosii_bsp.a(igmp_cmn.o)
                0x0084dca4                igmp_timers_are_running
                0x0084dca8                igmp_cticks
                0x0084dcac                igmp_all_hosts_group
                0x0084dcb0                igmp_all_rtrs_group
 .sbss          0x0084dcb4        0x4 ../fir_bsp/\libucosii_bsp.a(tk_crnos.o)
                0x0084dcb4                tcp_sleep_timeout
 .sbss          0x0084dcb8       0x18 ../fir_bsp/\libucosii_bsp.a(brdutils.o)
                0x0084dcbc                cticks_initialized
                0x0084dcc0                irq_level
                0x0084dcc8                cticks_factor
                0x0084dccc                OS_TPS
 .sbss          0x0084dcd0       0x18 ../fir_bsp/\libucosii_bsp.a(osportco.o)
                0x0084dcd0                tcp_sleep_count
                0x0084dcd4                tcp_wakeup_count
                0x0084dcd8                netq_intmask
                0x0084dcdc                old_mode
                0x0084dce0                global_TCPwakeup_setIndx
                0x0084dce4                cticks
 .sbss          0x0084dce8        0xc ../fir_bsp/\libucosii_bsp.a(targnios.o)
                0x0084dce8                memtrapsize
                0x0084dcec                mheap_sem_ptr
                0x0084dcf0                rcvdq_sem_ptr
 .sbss          0x0084dcf4       0x12 ../fir_bsp/\libucosii_bsp.a(nptcp.o)
                0x0084dcf4                nextslow
                0x0084dcfc                mbstat
                0x0084dd04                select_wait
 *fill*         0x0084dd06        0x2 00
 .sbss          0x0084dd08        0x8 ../fir_bsp/\libucosii_bsp.a(tcp_in.o)
                0x0084dd08                tcpprintfs
                0x0084dd0c                dropline
 .sbss          0x0084dd10        0x4 ../fir_bsp/\libucosii_bsp.a(tcp_out.o)
                0x0084dd10                tcp_optionbuf
 .sbss          0x0084dd14        0x8 ../fir_bsp/\libucosii_bsp.a(tcp_timr.o)
                0x0084dd14                tcp_maxidle
                0x0084dd18                tcp_iss
 .sbss          0x0084dd1c        0x4 ../fir_bsp/\libucosii_bsp.a(alt_dev.o)
                0x0084dd1c                alt_fd_list_lock
 .sbss          0x0084dd20        0x8 ../fir_bsp/\libucosii_bsp.a(alt_tick.o)
                0x0084dd20                _alt_tick_rate
                0x0084dd24                _alt_nticks
 .sbss          0x0084dd28        0x8 ../fir_bsp/\libucosii_bsp.a(allports.o)
                0x0084dd28                activehost
 .sbss          0x0084dd30       0x1c ../fir_bsp/\libucosii_bsp.a(et_arp.o)
                0x0084dd34                arpcache
                0x0084dd38                arpReqsIn
                0x0084dd3c                arpReqsOut
                0x0084dd40                arpRepsIn
                0x0084dd44                arpRepsOut
 .sbss          0x0084dd4c        0x4 ../fir_bsp/\libucosii_bsp.a(ip.o)
                0x0084dd4c                rt_mib
 .sbss          0x0084dd50       0x11 ../fir_bsp/\libucosii_bsp.a(ipport.o)
                0x0084dd50                port_prep
                0x0084dd54                net_system_exit
                0x0084dd58                so_evtmap_create
                0x0084dd5c                so_evtmap_delete
                0x0084dd60                so_evtmap
 *fill*         0x0084dd61        0x3 00
 .sbss          0x0084dd64        0x4 ../fir_bsp/\libucosii_bsp.a(ipraw.o)
                0x0084dd64                ipraw_eps
 .sbss          0x0084dd68        0x4 ../fir_bsp/\libucosii_bsp.a(iproute.o)
                0x0084dd68                cachedRoute
 .sbss          0x0084dd6c        0x2 ../fir_bsp/\libucosii_bsp.a(udp.o)
 *fill*         0x0084dd6e        0x2 00
 .sbss          0x0084dd70        0xe ../fir_bsp/\libucosii_bsp.a(netmain.o)
                0x0084dd70                netmain_wakes
                0x0084dd74                nettick_wakes
                0x0084dd78                iniche_net_ready
                0x0084dd7c                to_netmain
                0x0084dd7d                to_nettick
 *fill*         0x0084dd7e        0x2 00
 .sbss          0x0084dd80       0x34 ../fir_bsp/\libucosii_bsp.a(dhcpclnt.o)
                0x0084dd80                dhc_conn
                0x0084dd84                dsc_errors
                0x0084dd88                dsc_discovers
                0x0084dd8c                dsc_offers
                0x0084dd90                dsc_requests
                0x0084dd94                dsc_acks
                0x0084dd98                dsc_bpreplys
                0x0084dd9c                dsc_declines
                0x0084dda0                dsc_releases
                0x0084dda4                dsc_naks
                0x0084dda8                dsc_renew
                0x0084ddac                dsc_rebind
                0x0084ddb0                dsc_rlyerrs
 .sbss          0x0084ddb4        0x4 ../fir_bsp/\libucosii_bsp.a(udp_open.o)
                0x0084ddb4                firstudp
 .sbss          0x0084ddb8        0x8 ../fir_bsp/\libucosii_bsp.a(in_pcb.o)
                0x0084ddb8                inpcb_cachehits
                0x0084ddbc                inpcb_cachemiss
 .sbss          0x0084ddc0       0x20 ../fir_bsp/\libucosii_bsp.a(vfsfiles.o)
                0x0084ddc0                vfsystems
                0x0084ddc4                vfiles
                0x0084ddc8                vfsfiles
                0x0084ddcc                vfopen_error
                0x0084ddd0                vfs_dir_stale
                0x0084ddd4                vfs_open_files
                0x0084ddd8                vfs_total_rw_space
                0x0084dddc                vfs_total_dyna_files
 .sbss          0x0084dde0        0xc ../fir_bsp/\libucosii_bsp.a(timeouts.o)
                0x0084dde0                nextppp
                0x0084dde4                port_1s_callout
 .sbss          0x0084ddec        0x4 ../fir_bsp/\libucosii_bsp.a(icmp.o)
                0x0084ddec                icmpdu_hook
 .sbss          0x0084ddf0        0xc ../fir_bsp/\libucosii_bsp.a(ip_reasm.o)
                0x0084ddf0                ipr_curr_mem
                0x0084ddf4                h_ireq
                0x0084ddf8                ire_cticks
 *(.sbss2 .sbss2.* .gnu.linkonce.sb2.*)
 *(.scommon)
                0x0084ddfc                PROVIDE (__sbss_end, ABSOLUTE (.))
                0x0084ddfc                PROVIDE (___sbss_end, ABSOLUTE (.))
 *(.dynbss)
 *(.bss .bss.* .gnu.linkonce.b.*)
 .bss           0x0084ddfc        0x0 ../fir_bsp//obj/HAL/src/crt0.o
 .bss           0x0084ddfc        0x0 obj/default/LCD.o
 .bss           0x0084ddfc        0x0 obj/default/SSS_DE2_115.o
 .bss           0x0084ddfc        0x0 obj/default/alt_error_handler.o
 .bss           0x0084ddfc        0x0 obj/default/dm9000a.o
 .bss           0x0084ddfc        0x0 obj/default/iniche_init.o
 .bss           0x0084ddfc        0x0 obj/default/led.o
 .bss           0x0084ddfc        0x0 obj/default/network_utilities.o
 .bss           0x0084ddfc      0x5f0 obj/default/simple_socket_server.o
 .bss           0x0084e3ec        0x0 obj/default/tse_my_system.o
 .bss           0x0084e3ec        0x0 d:/altera/13.0sp1/nios2eds/bin/gnu/h-i686-mingw32/bin/../lib/gcc/nios2-elf/4.1.2\libgcc.a(_fixunsdfsi.o)
 .bss           0x0084e3ec        0x0 d:/altera/13.0sp1/nios2eds/bin/gnu/h-i686-mingw32/bin/../lib/gcc/nios2-elf/4.1.2\libgcc.a(_addsub_df.o)
 .bss           0x0084e3ec        0x0 d:/altera/13.0sp1/nios2eds/bin/gnu/h-i686-mingw32/bin/../lib/gcc/nios2-elf/4.1.2\libgcc.a(_mul_df.o)
 .bss           0x0084e3ec        0x0 d:/altera/13.0sp1/nios2eds/bin/gnu/h-i686-mingw32/bin/../lib/gcc/nios2-elf/4.1.2\libgcc.a(_ge_df.o)
 .bss           0x0084e3ec        0x0 d:/altera/13.0sp1/nios2eds/bin/gnu/h-i686-mingw32/bin/../lib/gcc/nios2-elf/4.1.2\libgcc.a(_df_to_si.o)
 .bss           0x0084e3ec        0x0 d:/altera/13.0sp1/nios2eds/bin/gnu/h-i686-mingw32/bin/../lib/gcc/nios2-elf/4.1.2\libgcc.a(_thenan_df.o)
 .bss           0x0084e3ec        0x0 d:/altera/13.0sp1/nios2eds/bin/gnu/h-i686-mingw32/bin/../lib/gcc/nios2-elf/4.1.2\libgcc.a(_usi_to_df.o)
 .bss           0x0084e3ec        0x0 d:/altera/13.0sp1/nios2eds/bin/gnu/h-i686-mingw32/bin/../lib/gcc/nios2-elf/4.1.2\libgcc.a(_muldi3.o)
 .bss           0x0084e3ec        0x0 d:/altera/13.0sp1/nios2eds/bin/gnu/h-i686-mingw32/bin/../lib/gcc/nios2-elf/4.1.2\libgcc.a(_clzsi2.o)
 .bss           0x0084e3ec        0x0 d:/altera/13.0sp1/nios2eds/bin/gnu/h-i686-mingw32/bin/../lib/gcc/nios2-elf/4.1.2\libgcc.a(_pack_df.o)
 .bss           0x0084e3ec        0x0 d:/altera/13.0sp1/nios2eds/bin/gnu/h-i686-mingw32/bin/../lib/gcc/nios2-elf/4.1.2\libgcc.a(_unpack_df.o)
 .bss           0x0084e3ec        0x0 d:/altera/13.0sp1/nios2eds/bin/gnu/h-i686-mingw32/bin/../lib/gcc/nios2-elf/4.1.2\libgcc.a(_fpcmp_parts_df.o)
 .bss           0x0084e3ec        0x0 d:/altera/13.0sp1/nios2eds/bin/gnu/h-i686-mingw32/bin/../lib/gcc/nios2-elf/4.1.2\libgcc.a(_clz.o)
 .bss           0x0084e3ec        0x0 d:/altera/13.0sp1/nios2eds/bin/gnu/h-i686-mingw32/bin/../lib/gcc/nios2-elf/4.1.2/../../../../nios2-elf/lib\libc.a(lib_a-ctype_.o)
 .bss           0x0084e3ec        0x0 d:/altera/13.0sp1/nios2eds/bin/gnu/h-i686-mingw32/bin/../lib/gcc/nios2-elf/4.1.2/../../../../nios2-elf/lib\libc.a(lib_a-exit.o)
 .bss           0x0084e3ec        0x0 d:/altera/13.0sp1/nios2eds/bin/gnu/h-i686-mingw32/bin/../lib/gcc/nios2-elf/4.1.2/../../../../nios2-elf/lib\libc.a(lib_a-fprintf.o)
 .bss           0x0084e3ec        0x0 d:/altera/13.0sp1/nios2eds/bin/gnu/h-i686-mingw32/bin/../lib/gcc/nios2-elf/4.1.2/../../../../nios2-elf/lib\libc.a(lib_a-fwrite.o)
 .bss           0x0084e3ec        0x0 d:/altera/13.0sp1/nios2eds/bin/gnu/h-i686-mingw32/bin/../lib/gcc/nios2-elf/4.1.2/../../../../nios2-elf/lib\libc.a(lib_a-getc.o)
 .bss           0x0084e3ec        0x0 d:/altera/13.0sp1/nios2eds/bin/gnu/h-i686-mingw32/bin/../lib/gcc/nios2-elf/4.1.2/../../../../nios2-elf/lib\libc.a(lib_a-impure.o)
 .bss           0x0084e3ec        0x0 d:/altera/13.0sp1/nios2eds/bin/gnu/h-i686-mingw32/bin/../lib/gcc/nios2-elf/4.1.2/../../../../nios2-elf/lib\libc.a(lib_a-malloc.o)
 .bss           0x0084e3ec       0x28 d:/altera/13.0sp1/nios2eds/bin/gnu/h-i686-mingw32/bin/../lib/gcc/nios2-elf/4.1.2/../../../../nios2-elf/lib\libc.a(lib_a-mallocr.o)
                0x0084e3ec                __malloc_current_mallinfo
 .bss           0x0084e414        0x0 d:/altera/13.0sp1/nios2eds/bin/gnu/h-i686-mingw32/bin/../lib/gcc/nios2-elf/4.1.2/../../../../nios2-elf/lib\libc.a(lib_a-memcpy.o)
 .bss           0x0084e414        0x0 d:/altera/13.0sp1/nios2eds/bin/gnu/h-i686-mingw32/bin/../lib/gcc/nios2-elf/4.1.2/../../../../nios2-elf/lib\libc.a(lib_a-memmove.o)
 .bss           0x0084e414        0x0 d:/altera/13.0sp1/nios2eds/bin/gnu/h-i686-mingw32/bin/../lib/gcc/nios2-elf/4.1.2/../../../../nios2-elf/lib\libc.a(lib_a-memset.o)
 .bss           0x0084e414        0x0 d:/altera/13.0sp1/nios2eds/bin/gnu/h-i686-mingw32/bin/../lib/gcc/nios2-elf/4.1.2/../../../../nios2-elf/lib\libc.a(lib_a-perror.o)
 .bss           0x0084e414        0x0 d:/altera/13.0sp1/nios2eds/bin/gnu/h-i686-mingw32/bin/../lib/gcc/nios2-elf/4.1.2/../../../../nios2-elf/lib\libc.a(lib_a-printf.o)
 .bss           0x0084e414        0x0 d:/altera/13.0sp1/nios2eds/bin/gnu/h-i686-mingw32/bin/../lib/gcc/nios2-elf/4.1.2/../../../../nios2-elf/lib\libc.a(lib_a-putc.o)
 .bss           0x0084e414        0x0 d:/altera/13.0sp1/nios2eds/bin/gnu/h-i686-mingw32/bin/../lib/gcc/nios2-elf/4.1.2/../../../../nios2-elf/lib\libc.a(lib_a-putchar.o)
 .bss           0x0084e414        0x0 d:/altera/13.0sp1/nios2eds/bin/gnu/h-i686-mingw32/bin/../lib/gcc/nios2-elf/4.1.2/../../../../nios2-elf/lib\libc.a(lib_a-puts.o)
 .bss           0x0084e414        0x0 d:/altera/13.0sp1/nios2eds/bin/gnu/h-i686-mingw32/bin/../lib/gcc/nios2-elf/4.1.2/../../../../nios2-elf/lib\libc.a(lib_a-rget.o)
 .bss           0x0084e414        0x0 d:/altera/13.0sp1/nios2eds/bin/gnu/h-i686-mingw32/bin/../lib/gcc/nios2-elf/4.1.2/../../../../nios2-elf/lib\libc.a(lib_a-sbrkr.o)
 .bss           0x0084e414        0x0 d:/altera/13.0sp1/nios2eds/bin/gnu/h-i686-mingw32/bin/../lib/gcc/nios2-elf/4.1.2/../../../../nios2-elf/lib\libc.a(lib_a-strchr.o)
 .bss           0x0084e414        0x0 d:/altera/13.0sp1/nios2eds/bin/gnu/h-i686-mingw32/bin/../lib/gcc/nios2-elf/4.1.2/../../../../nios2-elf/lib\libc.a(lib_a-strerror.o)
 .bss           0x0084e414        0x0 d:/altera/13.0sp1/nios2eds/bin/gnu/h-i686-mingw32/bin/../lib/gcc/nios2-elf/4.1.2/../../../../nios2-elf/lib\libc.a(lib_a-strlen.o)
 .bss           0x0084e414        0x0 d:/altera/13.0sp1/nios2eds/bin/gnu/h-i686-mingw32/bin/../lib/gcc/nios2-elf/4.1.2/../../../../nios2-elf/lib\libc.a(lib_a-u_strerr.o)
 .bss           0x0084e414        0x0 d:/altera/13.0sp1/nios2eds/bin/gnu/h-i686-mingw32/bin/../lib/gcc/nios2-elf/4.1.2/../../../../nios2-elf/lib\libc.a(lib_a-vfprintf.o)
 .bss           0x0084e414        0x0 d:/altera/13.0sp1/nios2eds/bin/gnu/h-i686-mingw32/bin/../lib/gcc/nios2-elf/4.1.2/../../../../nios2-elf/lib\libc.a(lib_a-wbuf.o)
 .bss           0x0084e414        0x0 d:/altera/13.0sp1/nios2eds/bin/gnu/h-i686-mingw32/bin/../lib/gcc/nios2-elf/4.1.2/../../../../nios2-elf/lib\libc.a(lib_a-wsetup.o)
 .bss           0x0084e414        0x0 d:/altera/13.0sp1/nios2eds/bin/gnu/h-i686-mingw32/bin/../lib/gcc/nios2-elf/4.1.2/../../../../nios2-elf/lib\libc.a(lib_a-__call_atexit.o)
 .bss           0x0084e414        0x0 d:/altera/13.0sp1/nios2eds/bin/gnu/h-i686-mingw32/bin/../lib/gcc/nios2-elf/4.1.2/../../../../nios2-elf/lib\libc.a(lib_a-dtoa.o)
 .bss           0x0084e414        0x0 d:/altera/13.0sp1/nios2eds/bin/gnu/h-i686-mingw32/bin/../lib/gcc/nios2-elf/4.1.2/../../../../nios2-elf/lib\libc.a(lib_a-fflush.o)
 .bss           0x0084e414        0x0 d:/altera/13.0sp1/nios2eds/bin/gnu/h-i686-mingw32/bin/../lib/gcc/nios2-elf/4.1.2/../../../../nios2-elf/lib\libc.a(lib_a-findfp.o)
 .bss           0x0084e414        0x0 d:/altera/13.0sp1/nios2eds/bin/gnu/h-i686-mingw32/bin/../lib/gcc/nios2-elf/4.1.2/../../../../nios2-elf/lib\libc.a(lib_a-fputc.o)
 .bss           0x0084e414        0x0 d:/altera/13.0sp1/nios2eds/bin/gnu/h-i686-mingw32/bin/../lib/gcc/nios2-elf/4.1.2/../../../../nios2-elf/lib\libc.a(lib_a-fputs.o)
 .bss           0x0084e414        0x0 d:/altera/13.0sp1/nios2eds/bin/gnu/h-i686-mingw32/bin/../lib/gcc/nios2-elf/4.1.2/../../../../nios2-elf/lib\libc.a(lib_a-freer.o)
 .bss           0x0084e414        0x0 d:/altera/13.0sp1/nios2eds/bin/gnu/h-i686-mingw32/bin/../lib/gcc/nios2-elf/4.1.2/../../../../nios2-elf/lib\libc.a(lib_a-fvwrite.o)
 .bss           0x0084e414        0x0 d:/altera/13.0sp1/nios2eds/bin/gnu/h-i686-mingw32/bin/../lib/gcc/nios2-elf/4.1.2/../../../../nios2-elf/lib\libc.a(lib_a-fwalk.o)
 .bss           0x0084e414        0x0 d:/altera/13.0sp1/nios2eds/bin/gnu/h-i686-mingw32/bin/../lib/gcc/nios2-elf/4.1.2/../../../../nios2-elf/lib\libc.a(lib_a-int_errno.o)
 .bss           0x0084e414        0x0 d:/altera/13.0sp1/nios2eds/bin/gnu/h-i686-mingw32/bin/../lib/gcc/nios2-elf/4.1.2/../../../../nios2-elf/lib\libc.a(lib_a-locale.o)
 .bss           0x0084e414        0x0 d:/altera/13.0sp1/nios2eds/bin/gnu/h-i686-mingw32/bin/../lib/gcc/nios2-elf/4.1.2/../../../../nios2-elf/lib\libc.a(lib_a-makebuf.o)
 .bss           0x0084e414        0x0 d:/altera/13.0sp1/nios2eds/bin/gnu/h-i686-mingw32/bin/../lib/gcc/nios2-elf/4.1.2/../../../../nios2-elf/lib\libc.a(lib_a-memchr.o)
 .bss           0x0084e414        0x0 d:/altera/13.0sp1/nios2eds/bin/gnu/h-i686-mingw32/bin/../lib/gcc/nios2-elf/4.1.2/../../../../nios2-elf/lib\libc.a(lib_a-mprec.o)
 .bss           0x0084e414        0x0 d:/altera/13.0sp1/nios2eds/bin/gnu/h-i686-mingw32/bin/../lib/gcc/nios2-elf/4.1.2/../../../../nios2-elf/lib\libc.a(lib_a-reallocr.o)
 .bss           0x0084e414        0x0 d:/altera/13.0sp1/nios2eds/bin/gnu/h-i686-mingw32/bin/../lib/gcc/nios2-elf/4.1.2/../../../../nios2-elf/lib\libc.a(lib_a-refill.o)
 .bss           0x0084e414        0x0 d:/altera/13.0sp1/nios2eds/bin/gnu/h-i686-mingw32/bin/../lib/gcc/nios2-elf/4.1.2/../../../../nios2-elf/lib\libc.a(lib_a-s_isinfd.o)
 .bss           0x0084e414        0x0 d:/altera/13.0sp1/nios2eds/bin/gnu/h-i686-mingw32/bin/../lib/gcc/nios2-elf/4.1.2/../../../../nios2-elf/lib\libc.a(lib_a-s_isnand.o)
 .bss           0x0084e414        0x0 d:/altera/13.0sp1/nios2eds/bin/gnu/h-i686-mingw32/bin/../lib/gcc/nios2-elf/4.1.2/../../../../nios2-elf/lib\libc.a(lib_a-stdio.o)
 .bss           0x0084e414        0x0 d:/altera/13.0sp1/nios2eds/bin/gnu/h-i686-mingw32/bin/../lib/gcc/nios2-elf/4.1.2/../../../../nios2-elf/lib\libc.a(lib_a-strcmp.o)
 .bss           0x0084e414        0x0 d:/altera/13.0sp1/nios2eds/bin/gnu/h-i686-mingw32/bin/../lib/gcc/nios2-elf/4.1.2/../../../../nios2-elf/lib\libc.a(lib_a-writer.o)
 .bss           0x0084e414        0x0 d:/altera/13.0sp1/nios2eds/bin/gnu/h-i686-mingw32/bin/../lib/gcc/nios2-elf/4.1.2/../../../../nios2-elf/lib\libc.a(lib_a-callocr.o)
 .bss           0x0084e414        0x0 d:/altera/13.0sp1/nios2eds/bin/gnu/h-i686-mingw32/bin/../lib/gcc/nios2-elf/4.1.2/../../../../nios2-elf/lib\libc.a(lib_a-closer.o)
 .bss           0x0084e414        0x0 d:/altera/13.0sp1/nios2eds/bin/gnu/h-i686-mingw32/bin/../lib/gcc/nios2-elf/4.1.2/../../../../nios2-elf/lib\libc.a(lib_a-fclose.o)
 .bss           0x0084e414        0x0 d:/altera/13.0sp1/nios2eds/bin/gnu/h-i686-mingw32/bin/../lib/gcc/nios2-elf/4.1.2/../../../../nios2-elf/lib\libc.a(lib_a-fstatr.o)
 .bss           0x0084e414        0x0 d:/altera/13.0sp1/nios2eds/bin/gnu/h-i686-mingw32/bin/../lib/gcc/nios2-elf/4.1.2/../../../../nios2-elf/lib\libc.a(lib_a-isattyr.o)
 .bss           0x0084e414        0x0 d:/altera/13.0sp1/nios2eds/bin/gnu/h-i686-mingw32/bin/../lib/gcc/nios2-elf/4.1.2/../../../../nios2-elf/lib\libc.a(lib_a-lseekr.o)
 .bss           0x0084e414        0x0 d:/altera/13.0sp1/nios2eds/bin/gnu/h-i686-mingw32/bin/../lib/gcc/nios2-elf/4.1.2/../../../../nios2-elf/lib\libc.a(lib_a-readr.o)
 .bss           0x0084e414        0x0 d:/altera/13.0sp1/nios2eds/bin/gnu/h-i686-mingw32/bin/../lib/gcc/nios2-elf/4.1.2\libgcc.a(_udivdi3.o)
 .bss           0x0084e414        0x0 d:/altera/13.0sp1/nios2eds/bin/gnu/h-i686-mingw32/bin/../lib/gcc/nios2-elf/4.1.2\libgcc.a(_umoddi3.o)
 .bss           0x0084e414        0x0 d:/altera/13.0sp1/nios2eds/bin/gnu/h-i686-mingw32/bin/../lib/gcc/nios2-elf/4.1.2\libgcc.a(_div_df.o)
 .bss           0x0084e414        0x0 d:/altera/13.0sp1/nios2eds/bin/gnu/h-i686-mingw32/bin/../lib/gcc/nios2-elf/4.1.2\libgcc.a(_eq_df.o)
 .bss           0x0084e414        0x0 d:/altera/13.0sp1/nios2eds/bin/gnu/h-i686-mingw32/bin/../lib/gcc/nios2-elf/4.1.2\libgcc.a(_ne_df.o)
 .bss           0x0084e414        0x0 d:/altera/13.0sp1/nios2eds/bin/gnu/h-i686-mingw32/bin/../lib/gcc/nios2-elf/4.1.2\libgcc.a(_gt_df.o)
 .bss           0x0084e414        0x0 d:/altera/13.0sp1/nios2eds/bin/gnu/h-i686-mingw32/bin/../lib/gcc/nios2-elf/4.1.2\libgcc.a(_lt_df.o)
 .bss           0x0084e414        0x0 d:/altera/13.0sp1/nios2eds/bin/gnu/h-i686-mingw32/bin/../lib/gcc/nios2-elf/4.1.2\libgcc.a(_si_to_df.o)
 .bss           0x0084e414        0x0 d:/altera/13.0sp1/nios2eds/bin/gnu/h-i686-mingw32/bin/../lib/gcc/nios2-elf/4.1.2\libgcc.a(lib2-divmod.o)
 .bss           0x0084e414        0x0 ../fir_bsp/\libucosii_bsp.a(alt_exit.o)
 .bss           0x0084e414        0x0 ../fir_bsp/\libucosii_bsp.a(alt_flash_dev.o)
 .bss           0x0084e414        0x0 ../fir_bsp/\libucosii_bsp.a(alt_fstat.o)
 .bss           0x0084e414        0x0 ../fir_bsp/\libucosii_bsp.a(alt_irq_register.o)
 .bss           0x0084e414        0x0 ../fir_bsp/\libucosii_bsp.a(alt_irq_vars.o)
 .bss           0x0084e414        0x0 ../fir_bsp/\libucosii_bsp.a(alt_isatty.o)
 .bss           0x0084e414        0x0 ../fir_bsp/\libucosii_bsp.a(alt_lseek.o)
 .bss           0x0084e414        0x0 ../fir_bsp/\libucosii_bsp.a(alt_main.o)
 .bss           0x0084e414        0x0 ../fir_bsp/\libucosii_bsp.a(alt_sbrk.o)
 .bss           0x0084e414        0x0 ../fir_bsp/\libucosii_bsp.a(alt_usleep.o)
 .bss           0x0084e414        0x0 ../fir_bsp/\libucosii_bsp.a(alt_env_lock.o)
 .bss           0x0084e414        0x0 ../fir_bsp/\libucosii_bsp.a(alt_malloc_lock.o)
 .bss           0x0084e414        0x0 ../fir_bsp/\libucosii_bsp.a(os_core.o)
 .bss           0x0084e414        0x0 ../fir_bsp/\libucosii_bsp.a(os_dbg.o)
 .bss           0x0084e414        0x0 ../fir_bsp/\libucosii_bsp.a(os_flag.o)
 .bss           0x0084e414        0x0 ../fir_bsp/\libucosii_bsp.a(os_mem.o)
 .bss           0x0084e414        0x0 ../fir_bsp/\libucosii_bsp.a(os_q.o)
 .bss           0x0084e414        0x0 ../fir_bsp/\libucosii_bsp.a(os_sem.o)
 .bss           0x0084e414        0x0 ../fir_bsp/\libucosii_bsp.a(os_task.o)
 .bss           0x0084e414        0x0 ../fir_bsp/\libucosii_bsp.a(os_time.o)
 .bss           0x0084e414        0x0 ../fir_bsp/\libucosii_bsp.a(alt_sys_init.o)
 .bss           0x0084e414        0x0 ../fir_bsp/\libucosii_bsp.a(altera_avalon_cfi_flash.o)
 .bss           0x0084e414        0x0 ../fir_bsp/\libucosii_bsp.a(altera_avalon_cfi_flash_table.o)
 .bss           0x0084e414        0x0 ../fir_bsp/\libucosii_bsp.a(altera_avalon_epcs_flash_controller.o)
 .bss           0x0084e414        0x0 ../fir_bsp/\libucosii_bsp.a(altera_avalon_jtag_uart_fd.o)
 .bss           0x0084e414        0x0 ../fir_bsp/\libucosii_bsp.a(altera_avalon_jtag_uart_init.o)
 .bss           0x0084e414        0x0 ../fir_bsp/\libucosii_bsp.a(altera_avalon_jtag_uart_ioctl.o)
 .bss           0x0084e414        0x0 ../fir_bsp/\libucosii_bsp.a(altera_avalon_jtag_uart_read.o)
 .bss           0x0084e414        0x0 ../fir_bsp/\libucosii_bsp.a(altera_avalon_jtag_uart_write.o)
 .bss           0x0084e414        0x0 ../fir_bsp/\libucosii_bsp.a(altera_avalon_lcd_16207.o)
 .bss           0x0084e414        0x0 ../fir_bsp/\libucosii_bsp.a(altera_avalon_lcd_16207_fd.o)
 .bss           0x0084e414        0x0 ../fir_bsp/\libucosii_bsp.a(altera_avalon_timer_sc.o)
 .bss           0x0084e414        0x0 ../fir_bsp/\libucosii_bsp.a(altera_avalon_uart_fd.o)
 .bss           0x0084e414        0x0 ../fir_bsp/\libucosii_bsp.a(altera_avalon_uart_init.o)
 .bss           0x0084e414        0x0 ../fir_bsp/\libucosii_bsp.a(altera_avalon_uart_read.o)
 .bss           0x0084e414        0x0 ../fir_bsp/\libucosii_bsp.a(altera_avalon_uart_write.o)
 .bss           0x0084e414        0x0 ../fir_bsp/\libucosii_bsp.a(epcs_commands.o)
 .bss           0x0084e414        0x0 ../fir_bsp/\libucosii_bsp.a(alt_iniche_close.o)
 .bss           0x0084e414        0x0 ../fir_bsp/\libucosii_bsp.a(alt_iniche_dev.o)
 .bss           0x0084e414        0x0 ../fir_bsp/\libucosii_bsp.a(alt_iniche_read.o)
 .bss           0x0084e414        0x0 ../fir_bsp/\libucosii_bsp.a(alt_iniche_write.o)
 .bss           0x0084e414        0x0 ../fir_bsp/\libucosii_bsp.a(ipnet.o)
 .bss           0x0084e414       0x3c ../fir_bsp/\libucosii_bsp.a(ipstart.o)
 .bss           0x0084e450        0x0 ../fir_bsp/\libucosii_bsp.a(igmp_cmn.o)
 .bss           0x0084e450        0x0 ../fir_bsp/\libucosii_bsp.a(bsdsock.o)
 .bss           0x0084e450        0x0 ../fir_bsp/\libucosii_bsp.a(cksum.o)
 .bss           0x0084e450       0x18 ../fir_bsp/\libucosii_bsp.a(in_utils.o)
 .bss           0x0084e468       0x1e ../fir_bsp/\libucosii_bsp.a(parseip.o)
 .bss           0x0084e486        0x0 ../fir_bsp/\libucosii_bsp.a(tk_crnos.o)
 .bss           0x0084e486        0x0 ../fir_bsp/\libucosii_bsp.a(pktalloc.o)
 .bss           0x0084e486        0x0 ../fir_bsp/\libucosii_bsp.a(q.o)
 .bss           0x0084e486        0x0 ../fir_bsp/\libucosii_bsp.a(asm_cksum.o)
 .bss           0x0084e486        0x0 ../fir_bsp/\libucosii_bsp.a(brdutils.o)
 .bss           0x0084e486        0x0 ../fir_bsp/\libucosii_bsp.a(osportco.o)
 .bss           0x0084e486        0x0 ../fir_bsp/\libucosii_bsp.a(targnios.o)
 .bss           0x0084e486        0x0 ../fir_bsp/\libucosii_bsp.a(nptcp.o)
 .bss           0x0084e486        0x0 ../fir_bsp/\libucosii_bsp.a(rawsock.o)
 .bss           0x0084e486        0x0 ../fir_bsp/\libucosii_bsp.a(sockcall.o)
 .bss           0x0084e486        0x0 ../fir_bsp/\libucosii_bsp.a(socket.o)
 .bss           0x0084e486        0x0 ../fir_bsp/\libucosii_bsp.a(socket2.o)
 .bss           0x0084e486        0x0 ../fir_bsp/\libucosii_bsp.a(soselect.o)
 .bss           0x0084e486        0x0 ../fir_bsp/\libucosii_bsp.a(tcp_in.o)
 .bss           0x0084e486        0x0 ../fir_bsp/\libucosii_bsp.a(tcp_out.o)
 .bss           0x0084e486        0x0 ../fir_bsp/\libucosii_bsp.a(tcp_subr.o)
 .bss           0x0084e486        0x0 ../fir_bsp/\libucosii_bsp.a(tcp_timr.o)
 .bss           0x0084e486        0x0 ../fir_bsp/\libucosii_bsp.a(tcp_usr.o)
 .bss           0x0084e486        0x0 ../fir_bsp/\libucosii_bsp.a(tcpport.o)
 .bss           0x0084e486        0x0 ../fir_bsp/\libucosii_bsp.a(udpsock.o)
 .bss           0x0084e486        0x0 ../fir_bsp/\libucosii_bsp.a(alt_alarm_start.o)
 .bss           0x0084e486        0x0 ../fir_bsp/\libucosii_bsp.a(alt_busy_sleep.o)
 .bss           0x0084e486        0x0 ../fir_bsp/\libucosii_bsp.a(alt_close.o)
 .bss           0x0084e486        0x0 ../fir_bsp/\libucosii_bsp.a(alt_dcache_flush.o)
 .bss           0x0084e486        0x0 ../fir_bsp/\libucosii_bsp.a(alt_dev.o)
 .bss           0x0084e486        0x0 ../fir_bsp/\libucosii_bsp.a(alt_dev_llist_insert.o)
 .bss           0x0084e486        0x0 ../fir_bsp/\libucosii_bsp.a(alt_do_ctors.o)
 .bss           0x0084e486        0x0 ../fir_bsp/\libucosii_bsp.a(alt_do_dtors.o)
 .bss           0x0084e486        0x0 ../fir_bsp/\libucosii_bsp.a(alt_errno.o)
 .bss           0x0084e486        0x0 ../fir_bsp/\libucosii_bsp.a(alt_find_dev.o)
 .bss           0x0084e486        0x0 ../fir_bsp/\libucosii_bsp.a(alt_iic.o)
 .bss           0x0084e486        0x0 ../fir_bsp/\libucosii_bsp.a(alt_iic_isr_register.o)
 .bss           0x0084e486        0x0 ../fir_bsp/\libucosii_bsp.a(alt_io_redirect.o)
 .bss           0x0084e486        0x0 ../fir_bsp/\libucosii_bsp.a(alt_irq_entry.o)
 .bss           0x0084e486        0x0 ../fir_bsp/\libucosii_bsp.a(alt_irq_handler.o)
 .bss           0x0084e486        0x0 ../fir_bsp/\libucosii_bsp.a(alt_open.o)
 .bss           0x0084e486        0x0 ../fir_bsp/\libucosii_bsp.a(alt_read.o)
 .bss           0x0084e486        0x0 ../fir_bsp/\libucosii_bsp.a(alt_release_fd.o)
 .bss           0x0084e486        0x0 ../fir_bsp/\libucosii_bsp.a(alt_remap_cached.o)
 .bss           0x0084e486        0x0 ../fir_bsp/\libucosii_bsp.a(alt_remap_uncached.o)
 .bss           0x0084e486        0x0 ../fir_bsp/\libucosii_bsp.a(alt_tick.o)
 .bss           0x0084e486        0x0 ../fir_bsp/\libucosii_bsp.a(alt_write.o)
 .bss           0x0084e486        0x0 ../fir_bsp/\libucosii_bsp.a(altera_nios2_qsys_irq.o)
 .bss           0x0084e486        0x0 ../fir_bsp/\libucosii_bsp.a(os_cpu_a.o)
 .bss           0x0084e486        0x0 ../fir_bsp/\libucosii_bsp.a(os_cpu_c.o)
 .bss           0x0084e486        0x0 ../fir_bsp/\libucosii_bsp.a(altera_avalon_cfi_flash_amd.o)
 .bss           0x0084e486        0x0 ../fir_bsp/\libucosii_bsp.a(altera_avalon_cfi_flash_intel.o)
 .bss           0x0084e486        0x0 ../fir_bsp/\libucosii_bsp.a(altera_avalon_spi.o)
 .bss           0x0084e486        0x0 ../fir_bsp/\libucosii_bsp.a(allports.o)
 .bss           0x0084e486        0x0 ../fir_bsp/\libucosii_bsp.a(tk_misc.o)
 .bss           0x0084e486        0x0 ../fir_bsp/\libucosii_bsp.a(alt_iniche_fcntl.o)
 .bss           0x0084e486        0x0 ../fir_bsp/\libucosii_bsp.a(et_arp.o)
 .bss           0x0084e486        0x0 ../fir_bsp/\libucosii_bsp.a(iface.o)
 .bss           0x0084e486        0x0 ../fir_bsp/\libucosii_bsp.a(ip.o)
 .bss           0x0084e486        0x0 ../fir_bsp/\libucosii_bsp.a(ipdemux.o)
 .bss           0x0084e486        0x0 ../fir_bsp/\libucosii_bsp.a(ipmc.o)
 .bss           0x0084e486        0x0 ../fir_bsp/\libucosii_bsp.a(ipport.o)
 .bss           0x0084e486        0x0 ../fir_bsp/\libucosii_bsp.a(ipraw.o)
 .bss           0x0084e486        0x0 ../fir_bsp/\libucosii_bsp.a(iproute.o)
 .bss           0x0084e486        0x0 ../fir_bsp/\libucosii_bsp.a(udp.o)
 .bss           0x0084e486        0x0 ../fir_bsp/\libucosii_bsp.a(igmp.o)
 .bss           0x0084e486        0x0 ../fir_bsp/\libucosii_bsp.a(igmp2.o)
 .bss           0x0084e486        0x0 ../fir_bsp/\libucosii_bsp.a(ipopt.o)
 .bss           0x0084e486        0x0 ../fir_bsp/\libucosii_bsp.a(u_mctest.o)
 .bss           0x0084e486        0x0 ../fir_bsp/\libucosii_bsp.a(dhcsetup.o)
 .bss           0x0084e486        0x0 ../fir_bsp/\libucosii_bsp.a(memdev.o)
 .bss           0x0084e486        0x0 ../fir_bsp/\libucosii_bsp.a(netmain.o)
 .bss           0x0084e486        0x0 ../fir_bsp/\libucosii_bsp.a(tcpcksum.o)
 .bss           0x0084e486        0x0 ../fir_bsp/\libucosii_bsp.a(dhcpclnt.o)
 .bss           0x0084e486        0x0 ../fir_bsp/\libucosii_bsp.a(dhcputil.o)
 .bss           0x0084e486        0x0 ../fir_bsp/\libucosii_bsp.a(udp_open.o)
 .bss           0x0084e486        0x0 ../fir_bsp/\libucosii_bsp.a(in_pcb.o)
 .bss           0x0084e486        0x0 ../fir_bsp/\libucosii_bsp.a(vfsfiles.o)
 .bss           0x0084e486        0x0 ../fir_bsp/\libucosii_bsp.a(vfsport.o)
 .bss           0x0084e486        0x0 ../fir_bsp/\libucosii_bsp.a(alt_exception_entry.o)
 .bss           0x0084e486        0x0 ../fir_bsp/\libucosii_bsp.a(alt_fcntl.o)
 .bss           0x0084e486        0x0 ../fir_bsp/\libucosii_bsp.a(alt_find_file.o)
 .bss           0x0084e486        0x0 ../fir_bsp/\libucosii_bsp.a(alt_get_fd.o)
 .bss           0x0084e486        0x0 ../fir_bsp/\libucosii_bsp.a(timeouts.o)
 .bss           0x0084e486        0x0 ../fir_bsp/\libucosii_bsp.a(icmp.o)
 .bss           0x0084e486        0x0 ../fir_bsp/\libucosii_bsp.a(ip_reasm.o)
 .bss           0x0084e486        0x0 d:/altera/13.0sp1/nios2eds/bin/gnu/h-i686-mingw32/bin/../lib/gcc/nios2-elf/4.1.2/../../../../nios2-elf/lib\libc.a(lib_a-atexit.o)
 .bss           0x0084e486        0x0 d:/altera/13.0sp1/nios2eds/bin/gnu/h-i686-mingw32/bin/../lib/gcc/nios2-elf/4.1.2/../../../../nios2-elf/lib\libc.a(lib_a-atoi.o)
 .bss           0x0084e486        0x0 d:/altera/13.0sp1/nios2eds/bin/gnu/h-i686-mingw32/bin/../lib/gcc/nios2-elf/4.1.2/../../../../nios2-elf/lib\libc.a(lib_a-calloc.o)
 .bss           0x0084e486        0x0 d:/altera/13.0sp1/nios2eds/bin/gnu/h-i686-mingw32/bin/../lib/gcc/nios2-elf/4.1.2/../../../../nios2-elf/lib\libc.a(lib_a-memcmp.o)
 .bss           0x0084e486        0x0 d:/altera/13.0sp1/nios2eds/bin/gnu/h-i686-mingw32/bin/../lib/gcc/nios2-elf/4.1.2/../../../../nios2-elf/lib\libc.a(lib_a-sprintf.o)
 .bss           0x0084e486        0x0 d:/altera/13.0sp1/nios2eds/bin/gnu/h-i686-mingw32/bin/../lib/gcc/nios2-elf/4.1.2/../../../../nios2-elf/lib\libc.a(lib_a-strcpy.o)
 .bss           0x0084e486        0x0 d:/altera/13.0sp1/nios2eds/bin/gnu/h-i686-mingw32/bin/../lib/gcc/nios2-elf/4.1.2/../../../../nios2-elf/lib\libc.a(lib_a-strncmp.o)
 .bss           0x0084e486        0x0 d:/altera/13.0sp1/nios2eds/bin/gnu/h-i686-mingw32/bin/../lib/gcc/nios2-elf/4.1.2/../../../../nios2-elf/lib\libc.a(lib_a-strncpy.o)
 .bss           0x0084e486        0x0 d:/altera/13.0sp1/nios2eds/bin/gnu/h-i686-mingw32/bin/../lib/gcc/nios2-elf/4.1.2/../../../../nios2-elf/lib\libc.a(lib_a-strtol.o)
 .bss           0x0084e486        0x0 d:/altera/13.0sp1/nios2eds/bin/gnu/h-i686-mingw32/bin/../lib/gcc/nios2-elf/4.1.2/../../../../nios2-elf/lib\libc.a(lib_a-vprintf.o)
 .bss           0x0084e486        0x0 d:/altera/13.0sp1/nios2eds/bin/gnu/h-i686-mingw32/bin/../lib/gcc/nios2-elf/4.1.2/../../../../nios2-elf/lib\libc.a(lib_a-vsprintf.o)
 .bss           0x0084e486        0x0 d:/altera/13.0sp1/nios2eds/bin/gnu/h-i686-mingw32/bin/../lib/gcc/nios2-elf/4.1.2/../../../../nios2-elf/lib\libc.a(lib_a-__atexit.o)
 *(COMMON)
 *fill*         0x0084e486        0x2 00
 COMMON         0x0084e488       0x44 obj/default/dm9000a.o
                0x0084e488                g_dm9ka
 COMMON         0x0084e4cc     0x2000 obj/default/iniche_init.o
                0x0084e4cc                SSSInitialTaskStk
 COMMON         0x008504cc     0x4078 obj/default/simple_socket_server.o
                0x008504cc                LED7SegLightshowTaskStk
                0x008524cc                SSSLEDCommandQTbl
                0x00852544                LEDManagementTaskStk
 COMMON         0x00854544     0x3224 ../fir_bsp/\libucosii_bsp.a(os_core.o)
                0x00854544                OSFlagTbl
                0x008548b4                OSMemTbl
                0x008554e4                OSTaskStatStk
                0x00855ce4                OSQTbl
                0x00855ec4                OSTaskIdleStk
                0x008566c4                OSEventTbl
                0x00857204                OSTCBTbl
                0x00857714                OSTCBPrioTbl
 COMMON         0x00857768       0x14 ../fir_bsp/\libucosii_bsp.a(ipnet.o)
                0x00857768                rcvdq
 COMMON         0x0085777c      0x310 ../fir_bsp/\libucosii_bsp.a(ipstart.o)
                0x0085777c                netstatic
                0x00857a7c                nets
 COMMON         0x00857a8c       0x64 ../fir_bsp/\libucosii_bsp.a(igmp_cmn.o)
                0x00857a8c                igmpstats
 COMMON         0x00857af0       0x24 ../fir_bsp/\libucosii_bsp.a(in_utils.o)
                0x00857af0                eth_prt_buf
                0x00857b02                ipreturn
 COMMON         0x00857b14      0x128 ../fir_bsp/\libucosii_bsp.a(pktalloc.o)
                0x00857b14                lilfreeq
                0x00857b28                memestats
                0x00857b38                pktlog
                0x00857c28                bigfreeq
 COMMON         0x00857c3c      0x1ec ../fir_bsp/\libucosii_bsp.a(osportco.o)
                0x00857c3c                global_tcb_ext
                0x00857d38                global_TCPwakeup_set
 COMMON         0x00857e28       0x58 ../fir_bsp/\libucosii_bsp.a(targnios.o)
                0x00857e28                resid_semaphore
                0x00857e68                app_semaphore
 COMMON         0x00857e80       0x78 ../fir_bsp/\libucosii_bsp.a(nptcp.o)
                0x00857e80                soq
                0x00857e94                tcpmib
                0x00857ed0                mbufq
                0x00857ee4                mfreeq
 COMMON         0x00857ef8       0x28 ../fir_bsp/\libucosii_bsp.a(tcp_in.o)
                0x00857ef8                tcp_saveti
 COMMON         0x00857f20      0x10c ../fir_bsp/\libucosii_bsp.a(tcp_subr.o)
                0x00857f20                tcb
                0x00857f4c                tcpstat
 COMMON         0x0085802c      0x100 ../fir_bsp/\libucosii_bsp.a(alt_irq_handler.o)
                0x0085802c                alt_irq
 COMMON         0x0085812c      0x100 ../fir_bsp/\libucosii_bsp.a(et_arp.o)
                0x0085812c                arp_table
 COMMON         0x0085822c       0x14 ../fir_bsp/\libucosii_bsp.a(iface.o)
                0x0085822c                netlist
 COMMON         0x00858240       0x50 ../fir_bsp/\libucosii_bsp.a(ip.o)
                0x00858240                ip_mib
 COMMON         0x00858290       0x10 ../fir_bsp/\libucosii_bsp.a(udp.o)
                0x00858290                udp_mib
 COMMON         0x008582a0       0xf0 ../fir_bsp/\libucosii_bsp.a(dhcpclnt.o)
                0x008582a0                dhc_states
 COMMON         0x00858390       0x64 ../fir_bsp/\libucosii_bsp.a(timeouts.o)
                0x00858390                intimers
 COMMON         0x008583f4       0x68 ../fir_bsp/\libucosii_bsp.a(icmp.o)
                0x008583f4                icmp_mib
 COMMON         0x0085845c       0x18 ../fir_bsp/\libucosii_bsp.a(ip_reasm.o)
                0x0085845c                ire_stats
 COMMON         0x00858474      0x190 d:/altera/13.0sp1/nios2eds/bin/gnu/h-i686-mingw32/bin/../lib/gcc/nios2-elf/4.1.2/../../../../nios2-elf/lib\libc.a(lib_a-atexit.o)
                0x00858474                _atexit0
                0x00858604                . = ALIGN (0x4)
                0x00858604                __bss_end = ABSOLUTE (.)

.sdram_0        0x00858604        0x0
                0x00858604                PROVIDE (_alt_partition_sdram_0_start, ABSOLUTE (.))
 *(.sdram_0. sdram_0.*)
                0x00858604                . = ALIGN (0x4)
                0x00858604                PROVIDE (_alt_partition_sdram_0_end, ABSOLUTE (.))
                0x00858604                _end = ABSOLUTE (.)
                0x00858604                end = ABSOLUTE (.)
                0x00858604                __alt_stack_base = ABSOLUTE (.)
                0x00858604                PROVIDE (_alt_partition_sdram_0_load_addr, LOADADDR (.sdram_0))

.cfi_flash_0    0x01400020        0x0
                0x01400020                PROVIDE (_alt_partition_cfi_flash_0_start, ABSOLUTE (.))
 *(.cfi_flash_0. cfi_flash_0.*)
                0x01400020                . = ALIGN (0x4)
                0x01400020                PROVIDE (_alt_partition_cfi_flash_0_end, ABSOLUTE (.))
                0x01400020                PROVIDE (_alt_partition_cfi_flash_0_load_addr, LOADADDR (.cfi_flash_0))

.sram_0         0x01a00000        0x0
                0x01a00000                PROVIDE (_alt_partition_sram_0_start, ABSOLUTE (.))
 *(.sram_0. sram_0.*)
                0x01a00000                . = ALIGN (0x4)
                0x01a00000                PROVIDE (_alt_partition_sram_0_end, ABSOLUTE (.))
                0x01a00000                PROVIDE (_alt_partition_sram_0_load_addr, LOADADDR (.sram_0))

.epcs_controller
                0x01a81800        0x0
                0x01a81800                PROVIDE (_alt_partition_epcs_controller_start, ABSOLUTE (.))
 *(.epcs_controller. epcs_controller.*)
                0x01a81800                . = ALIGN (0x4)
                0x01a81800                PROVIDE (_alt_partition_epcs_controller_end, ABSOLUTE (.))
                0x01a81800                PROVIDE (_alt_partition_epcs_controller_load_addr, LOADADDR (.epcs_controller))

.stab
 *(.stab)

.stabstr
 *(.stabstr)

.stab.excl
 *(.stab.excl)

.stab.exclstr
 *(.stab.exclstr)

.stab.index
 *(.stab.index)

.stab.indexstr
 *(.stab.indexstr)

.comment        0x00000000       0x26
 *(.comment)
 .comment       0x00000000       0x26 obj/default/LCD.o
                                 0x27 (size before relaxing)
 .comment       0x00000000       0x27 obj/default/SSS_DE2_115.o
 .comment       0x00000000       0x27 obj/default/alt_error_handler.o
 .comment       0x00000000       0x27 obj/default/dm9000a.o
 .comment       0x00000000       0x27 obj/default/iniche_init.o
 .comment       0x00000000       0x27 obj/default/led.o
 .comment       0x00000000       0x27 obj/default/network_utilities.o
 .comment       0x00000000       0x27 obj/default/simple_socket_server.o
 .comment       0x00000000       0x27 obj/default/tse_my_system.o
 .comment       0x00000000       0x27 d:/altera/13.0sp1/nios2eds/bin/gnu/h-i686-mingw32/bin/../lib/gcc/nios2-elf/4.1.2\libgcc.a(_fixunsdfsi.o)
 .comment       0x00000000       0x27 d:/altera/13.0sp1/nios2eds/bin/gnu/h-i686-mingw32/bin/../lib/gcc/nios2-elf/4.1.2\libgcc.a(_addsub_df.o)
 .comment       0x00000000       0x27 d:/altera/13.0sp1/nios2eds/bin/gnu/h-i686-mingw32/bin/../lib/gcc/nios2-elf/4.1.2\libgcc.a(_mul_df.o)
 .comment       0x00000000       0x27 d:/altera/13.0sp1/nios2eds/bin/gnu/h-i686-mingw32/bin/../lib/gcc/nios2-elf/4.1.2\libgcc.a(_ge_df.o)
 .comment       0x00000000       0x27 d:/altera/13.0sp1/nios2eds/bin/gnu/h-i686-mingw32/bin/../lib/gcc/nios2-elf/4.1.2\libgcc.a(_df_to_si.o)
 .comment       0x00000000       0x27 d:/altera/13.0sp1/nios2eds/bin/gnu/h-i686-mingw32/bin/../lib/gcc/nios2-elf/4.1.2\libgcc.a(_thenan_df.o)
 .comment       0x00000000       0x27 d:/altera/13.0sp1/nios2eds/bin/gnu/h-i686-mingw32/bin/../lib/gcc/nios2-elf/4.1.2\libgcc.a(_usi_to_df.o)
 .comment       0x00000000       0x27 d:/altera/13.0sp1/nios2eds/bin/gnu/h-i686-mingw32/bin/../lib/gcc/nios2-elf/4.1.2\libgcc.a(_muldi3.o)
 .comment       0x00000000       0x27 d:/altera/13.0sp1/nios2eds/bin/gnu/h-i686-mingw32/bin/../lib/gcc/nios2-elf/4.1.2\libgcc.a(_clzsi2.o)
 .comment       0x00000000       0x27 d:/altera/13.0sp1/nios2eds/bin/gnu/h-i686-mingw32/bin/../lib/gcc/nios2-elf/4.1.2\libgcc.a(_pack_df.o)
 .comment       0x00000000       0x27 d:/altera/13.0sp1/nios2eds/bin/gnu/h-i686-mingw32/bin/../lib/gcc/nios2-elf/4.1.2\libgcc.a(_unpack_df.o)
 .comment       0x00000000       0x27 d:/altera/13.0sp1/nios2eds/bin/gnu/h-i686-mingw32/bin/../lib/gcc/nios2-elf/4.1.2\libgcc.a(_fpcmp_parts_df.o)
 .comment       0x00000000       0x27 d:/altera/13.0sp1/nios2eds/bin/gnu/h-i686-mingw32/bin/../lib/gcc/nios2-elf/4.1.2\libgcc.a(_clz.o)
 .comment       0x00000000       0x27 d:/altera/13.0sp1/nios2eds/bin/gnu/h-i686-mingw32/bin/../lib/gcc/nios2-elf/4.1.2/../../../../nios2-elf/lib\libc.a(lib_a-ctype_.o)
 .comment       0x00000000       0x27 d:/altera/13.0sp1/nios2eds/bin/gnu/h-i686-mingw32/bin/../lib/gcc/nios2-elf/4.1.2/../../../../nios2-elf/lib\libc.a(lib_a-exit.o)
 .comment       0x00000000       0x27 d:/altera/13.0sp1/nios2eds/bin/gnu/h-i686-mingw32/bin/../lib/gcc/nios2-elf/4.1.2/../../../../nios2-elf/lib\libc.a(lib_a-fprintf.o)
 .comment       0x00000000       0x27 d:/altera/13.0sp1/nios2eds/bin/gnu/h-i686-mingw32/bin/../lib/gcc/nios2-elf/4.1.2/../../../../nios2-elf/lib\libc.a(lib_a-fwrite.o)
 .comment       0x00000000       0x27 d:/altera/13.0sp1/nios2eds/bin/gnu/h-i686-mingw32/bin/../lib/gcc/nios2-elf/4.1.2/../../../../nios2-elf/lib\libc.a(lib_a-getc.o)
 .comment       0x00000000       0x27 d:/altera/13.0sp1/nios2eds/bin/gnu/h-i686-mingw32/bin/../lib/gcc/nios2-elf/4.1.2/../../../../nios2-elf/lib\libc.a(lib_a-impure.o)
 .comment       0x00000000       0x27 d:/altera/13.0sp1/nios2eds/bin/gnu/h-i686-mingw32/bin/../lib/gcc/nios2-elf/4.1.2/../../../../nios2-elf/lib\libc.a(lib_a-malloc.o)
 .comment       0x00000000       0x27 d:/altera/13.0sp1/nios2eds/bin/gnu/h-i686-mingw32/bin/../lib/gcc/nios2-elf/4.1.2/../../../../nios2-elf/lib\libc.a(lib_a-mallocr.o)
 .comment       0x00000000       0x27 d:/altera/13.0sp1/nios2eds/bin/gnu/h-i686-mingw32/bin/../lib/gcc/nios2-elf/4.1.2/../../../../nios2-elf/lib\libc.a(lib_a-memcpy.o)
 .comment       0x00000000       0x27 d:/altera/13.0sp1/nios2eds/bin/gnu/h-i686-mingw32/bin/../lib/gcc/nios2-elf/4.1.2/../../../../nios2-elf/lib\libc.a(lib_a-memmove.o)
 .comment       0x00000000       0x27 d:/altera/13.0sp1/nios2eds/bin/gnu/h-i686-mingw32/bin/../lib/gcc/nios2-elf/4.1.2/../../../../nios2-elf/lib\libc.a(lib_a-memset.o)
 .comment       0x00000000       0x27 d:/altera/13.0sp1/nios2eds/bin/gnu/h-i686-mingw32/bin/../lib/gcc/nios2-elf/4.1.2/../../../../nios2-elf/lib\libc.a(lib_a-perror.o)
 .comment       0x00000000       0x27 d:/altera/13.0sp1/nios2eds/bin/gnu/h-i686-mingw32/bin/../lib/gcc/nios2-elf/4.1.2/../../../../nios2-elf/lib\libc.a(lib_a-printf.o)
 .comment       0x00000000       0x27 d:/altera/13.0sp1/nios2eds/bin/gnu/h-i686-mingw32/bin/../lib/gcc/nios2-elf/4.1.2/../../../../nios2-elf/lib\libc.a(lib_a-putc.o)
 .comment       0x00000000       0x27 d:/altera/13.0sp1/nios2eds/bin/gnu/h-i686-mingw32/bin/../lib/gcc/nios2-elf/4.1.2/../../../../nios2-elf/lib\libc.a(lib_a-putchar.o)
 .comment       0x00000000       0x27 d:/altera/13.0sp1/nios2eds/bin/gnu/h-i686-mingw32/bin/../lib/gcc/nios2-elf/4.1.2/../../../../nios2-elf/lib\libc.a(lib_a-puts.o)
 .comment       0x00000000       0x27 d:/altera/13.0sp1/nios2eds/bin/gnu/h-i686-mingw32/bin/../lib/gcc/nios2-elf/4.1.2/../../../../nios2-elf/lib\libc.a(lib_a-rget.o)
 .comment       0x00000000       0x27 d:/altera/13.0sp1/nios2eds/bin/gnu/h-i686-mingw32/bin/../lib/gcc/nios2-elf/4.1.2/../../../../nios2-elf/lib\libc.a(lib_a-sbrkr.o)
 .comment       0x00000000       0x27 d:/altera/13.0sp1/nios2eds/bin/gnu/h-i686-mingw32/bin/../lib/gcc/nios2-elf/4.1.2/../../../../nios2-elf/lib\libc.a(lib_a-strchr.o)
 .comment       0x00000000       0x27 d:/altera/13.0sp1/nios2eds/bin/gnu/h-i686-mingw32/bin/../lib/gcc/nios2-elf/4.1.2/../../../../nios2-elf/lib\libc.a(lib_a-strerror.o)
 .comment       0x00000000       0x27 d:/altera/13.0sp1/nios2eds/bin/gnu/h-i686-mingw32/bin/../lib/gcc/nios2-elf/4.1.2/../../../../nios2-elf/lib\libc.a(lib_a-strlen.o)
 .comment       0x00000000       0x27 d:/altera/13.0sp1/nios2eds/bin/gnu/h-i686-mingw32/bin/../lib/gcc/nios2-elf/4.1.2/../../../../nios2-elf/lib\libc.a(lib_a-u_strerr.o)
 .comment       0x00000000       0x27 d:/altera/13.0sp1/nios2eds/bin/gnu/h-i686-mingw32/bin/../lib/gcc/nios2-elf/4.1.2/../../../../nios2-elf/lib\libc.a(lib_a-vfprintf.o)
 .comment       0x00000000       0x27 d:/altera/13.0sp1/nios2eds/bin/gnu/h-i686-mingw32/bin/../lib/gcc/nios2-elf/4.1.2/../../../../nios2-elf/lib\libc.a(lib_a-wbuf.o)
 .comment       0x00000000       0x27 d:/altera/13.0sp1/nios2eds/bin/gnu/h-i686-mingw32/bin/../lib/gcc/nios2-elf/4.1.2/../../../../nios2-elf/lib\libc.a(lib_a-wsetup.o)
 .comment       0x00000000       0x27 d:/altera/13.0sp1/nios2eds/bin/gnu/h-i686-mingw32/bin/../lib/gcc/nios2-elf/4.1.2/../../../../nios2-elf/lib\libc.a(lib_a-__call_atexit.o)
 .comment       0x00000000       0x27 d:/altera/13.0sp1/nios2eds/bin/gnu/h-i686-mingw32/bin/../lib/gcc/nios2-elf/4.1.2/../../../../nios2-elf/lib\libc.a(lib_a-dtoa.o)
 .comment       0x00000000       0x27 d:/altera/13.0sp1/nios2eds/bin/gnu/h-i686-mingw32/bin/../lib/gcc/nios2-elf/4.1.2/../../../../nios2-elf/lib\libc.a(lib_a-fflush.o)
 .comment       0x00000000       0x27 d:/altera/13.0sp1/nios2eds/bin/gnu/h-i686-mingw32/bin/../lib/gcc/nios2-elf/4.1.2/../../../../nios2-elf/lib\libc.a(lib_a-findfp.o)
 .comment       0x00000000       0x27 d:/altera/13.0sp1/nios2eds/bin/gnu/h-i686-mingw32/bin/../lib/gcc/nios2-elf/4.1.2/../../../../nios2-elf/lib\libc.a(lib_a-fputc.o)
 .comment       0x00000000       0x27 d:/altera/13.0sp1/nios2eds/bin/gnu/h-i686-mingw32/bin/../lib/gcc/nios2-elf/4.1.2/../../../../nios2-elf/lib\libc.a(lib_a-fputs.o)
 .comment       0x00000000       0x27 d:/altera/13.0sp1/nios2eds/bin/gnu/h-i686-mingw32/bin/../lib/gcc/nios2-elf/4.1.2/../../../../nios2-elf/lib\libc.a(lib_a-freer.o)
 .comment       0x00000000       0x27 d:/altera/13.0sp1/nios2eds/bin/gnu/h-i686-mingw32/bin/../lib/gcc/nios2-elf/4.1.2/../../../../nios2-elf/lib\libc.a(lib_a-fvwrite.o)
 .comment       0x00000000       0x27 d:/altera/13.0sp1/nios2eds/bin/gnu/h-i686-mingw32/bin/../lib/gcc/nios2-elf/4.1.2/../../../../nios2-elf/lib\libc.a(lib_a-fwalk.o)
 .comment       0x00000000       0x27 d:/altera/13.0sp1/nios2eds/bin/gnu/h-i686-mingw32/bin/../lib/gcc/nios2-elf/4.1.2/../../../../nios2-elf/lib\libc.a(lib_a-int_errno.o)
 .comment       0x00000000       0x27 d:/altera/13.0sp1/nios2eds/bin/gnu/h-i686-mingw32/bin/../lib/gcc/nios2-elf/4.1.2/../../../../nios2-elf/lib\libc.a(lib_a-locale.o)
 .comment       0x00000000       0x27 d:/altera/13.0sp1/nios2eds/bin/gnu/h-i686-mingw32/bin/../lib/gcc/nios2-elf/4.1.2/../../../../nios2-elf/lib\libc.a(lib_a-makebuf.o)
 .comment       0x00000000       0x27 d:/altera/13.0sp1/nios2eds/bin/gnu/h-i686-mingw32/bin/../lib/gcc/nios2-elf/4.1.2/../../../../nios2-elf/lib\libc.a(lib_a-memchr.o)
 .comment       0x00000000       0x27 d:/altera/13.0sp1/nios2eds/bin/gnu/h-i686-mingw32/bin/../lib/gcc/nios2-elf/4.1.2/../../../../nios2-elf/lib\libc.a(lib_a-mprec.o)
 .comment       0x00000000       0x27 d:/altera/13.0sp1/nios2eds/bin/gnu/h-i686-mingw32/bin/../lib/gcc/nios2-elf/4.1.2/../../../../nios2-elf/lib\libc.a(lib_a-reallocr.o)
 .comment       0x00000000       0x27 d:/altera/13.0sp1/nios2eds/bin/gnu/h-i686-mingw32/bin/../lib/gcc/nios2-elf/4.1.2/../../../../nios2-elf/lib\libc.a(lib_a-refill.o)
 .comment       0x00000000       0x27 d:/altera/13.0sp1/nios2eds/bin/gnu/h-i686-mingw32/bin/../lib/gcc/nios2-elf/4.1.2/../../../../nios2-elf/lib\libc.a(lib_a-s_isinfd.o)
 .comment       0x00000000       0x27 d:/altera/13.0sp1/nios2eds/bin/gnu/h-i686-mingw32/bin/../lib/gcc/nios2-elf/4.1.2/../../../../nios2-elf/lib\libc.a(lib_a-s_isnand.o)
 .comment       0x00000000       0x27 d:/altera/13.0sp1/nios2eds/bin/gnu/h-i686-mingw32/bin/../lib/gcc/nios2-elf/4.1.2/../../../../nios2-elf/lib\libc.a(lib_a-stdio.o)
 .comment       0x00000000       0x27 d:/altera/13.0sp1/nios2eds/bin/gnu/h-i686-mingw32/bin/../lib/gcc/nios2-elf/4.1.2/../../../../nios2-elf/lib\libc.a(lib_a-strcmp.o)
 .comment       0x00000000       0x27 d:/altera/13.0sp1/nios2eds/bin/gnu/h-i686-mingw32/bin/../lib/gcc/nios2-elf/4.1.2/../../../../nios2-elf/lib\libc.a(lib_a-writer.o)
 .comment       0x00000000       0x27 d:/altera/13.0sp1/nios2eds/bin/gnu/h-i686-mingw32/bin/../lib/gcc/nios2-elf/4.1.2/../../../../nios2-elf/lib\libc.a(lib_a-callocr.o)
 .comment       0x00000000       0x27 d:/altera/13.0sp1/nios2eds/bin/gnu/h-i686-mingw32/bin/../lib/gcc/nios2-elf/4.1.2/../../../../nios2-elf/lib\libc.a(lib_a-closer.o)
 .comment       0x00000000       0x27 d:/altera/13.0sp1/nios2eds/bin/gnu/h-i686-mingw32/bin/../lib/gcc/nios2-elf/4.1.2/../../../../nios2-elf/lib\libc.a(lib_a-fclose.o)
 .comment       0x00000000       0x27 d:/altera/13.0sp1/nios2eds/bin/gnu/h-i686-mingw32/bin/../lib/gcc/nios2-elf/4.1.2/../../../../nios2-elf/lib\libc.a(lib_a-fstatr.o)
 .comment       0x00000000       0x27 d:/altera/13.0sp1/nios2eds/bin/gnu/h-i686-mingw32/bin/../lib/gcc/nios2-elf/4.1.2/../../../../nios2-elf/lib\libc.a(lib_a-isattyr.o)
 .comment       0x00000000       0x27 d:/altera/13.0sp1/nios2eds/bin/gnu/h-i686-mingw32/bin/../lib/gcc/nios2-elf/4.1.2/../../../../nios2-elf/lib\libc.a(lib_a-lseekr.o)
 .comment       0x00000000       0x27 d:/altera/13.0sp1/nios2eds/bin/gnu/h-i686-mingw32/bin/../lib/gcc/nios2-elf/4.1.2/../../../../nios2-elf/lib\libc.a(lib_a-readr.o)
 .comment       0x00000000       0x27 d:/altera/13.0sp1/nios2eds/bin/gnu/h-i686-mingw32/bin/../lib/gcc/nios2-elf/4.1.2\libgcc.a(_udivdi3.o)
 .comment       0x00000000       0x27 d:/altera/13.0sp1/nios2eds/bin/gnu/h-i686-mingw32/bin/../lib/gcc/nios2-elf/4.1.2\libgcc.a(_umoddi3.o)
 .comment       0x00000000       0x27 d:/altera/13.0sp1/nios2eds/bin/gnu/h-i686-mingw32/bin/../lib/gcc/nios2-elf/4.1.2\libgcc.a(_div_df.o)
 .comment       0x00000000       0x27 d:/altera/13.0sp1/nios2eds/bin/gnu/h-i686-mingw32/bin/../lib/gcc/nios2-elf/4.1.2\libgcc.a(_eq_df.o)
 .comment       0x00000000       0x27 d:/altera/13.0sp1/nios2eds/bin/gnu/h-i686-mingw32/bin/../lib/gcc/nios2-elf/4.1.2\libgcc.a(_ne_df.o)
 .comment       0x00000000       0x27 d:/altera/13.0sp1/nios2eds/bin/gnu/h-i686-mingw32/bin/../lib/gcc/nios2-elf/4.1.2\libgcc.a(_gt_df.o)
 .comment       0x00000000       0x27 d:/altera/13.0sp1/nios2eds/bin/gnu/h-i686-mingw32/bin/../lib/gcc/nios2-elf/4.1.2\libgcc.a(_lt_df.o)
 .comment       0x00000000       0x27 d:/altera/13.0sp1/nios2eds/bin/gnu/h-i686-mingw32/bin/../lib/gcc/nios2-elf/4.1.2\libgcc.a(_si_to_df.o)
 .comment       0x00000000       0x27 d:/altera/13.0sp1/nios2eds/bin/gnu/h-i686-mingw32/bin/../lib/gcc/nios2-elf/4.1.2\libgcc.a(lib2-divmod.o)
 .comment       0x00000000       0x27 ../fir_bsp/\libucosii_bsp.a(alt_exit.o)
 .comment       0x00000000       0x27 ../fir_bsp/\libucosii_bsp.a(alt_flash_dev.o)
 .comment       0x00000000       0x27 ../fir_bsp/\libucosii_bsp.a(alt_fstat.o)
 .comment       0x00000000       0x27 ../fir_bsp/\libucosii_bsp.a(alt_irq_register.o)
 .comment       0x00000000       0x27 ../fir_bsp/\libucosii_bsp.a(alt_irq_vars.o)
 .comment       0x00000000       0x27 ../fir_bsp/\libucosii_bsp.a(alt_isatty.o)
 .comment       0x00000000       0x27 ../fir_bsp/\libucosii_bsp.a(alt_lseek.o)
 .comment       0x00000000       0x27 ../fir_bsp/\libucosii_bsp.a(alt_main.o)
 .comment       0x00000000       0x27 ../fir_bsp/\libucosii_bsp.a(alt_sbrk.o)
 .comment       0x00000000       0x27 ../fir_bsp/\libucosii_bsp.a(alt_usleep.o)
 .comment       0x00000000       0x27 ../fir_bsp/\libucosii_bsp.a(alt_env_lock.o)
 .comment       0x00000000       0x27 ../fir_bsp/\libucosii_bsp.a(alt_malloc_lock.o)
 .comment       0x00000000       0x27 ../fir_bsp/\libucosii_bsp.a(os_core.o)
 .comment       0x00000000       0x27 ../fir_bsp/\libucosii_bsp.a(os_dbg.o)
 .comment       0x00000000       0x27 ../fir_bsp/\libucosii_bsp.a(os_flag.o)
 .comment       0x00000000       0x27 ../fir_bsp/\libucosii_bsp.a(os_mem.o)
 .comment       0x00000000       0x27 ../fir_bsp/\libucosii_bsp.a(os_q.o)
 .comment       0x00000000       0x27 ../fir_bsp/\libucosii_bsp.a(os_sem.o)
 .comment       0x00000000       0x27 ../fir_bsp/\libucosii_bsp.a(os_task.o)
 .comment       0x00000000       0x27 ../fir_bsp/\libucosii_bsp.a(os_time.o)
 .comment       0x00000000       0x27 ../fir_bsp/\libucosii_bsp.a(alt_sys_init.o)
 .comment       0x00000000       0x27 ../fir_bsp/\libucosii_bsp.a(altera_avalon_cfi_flash.o)
 .comment       0x00000000       0x27 ../fir_bsp/\libucosii_bsp.a(altera_avalon_cfi_flash_table.o)
 .comment       0x00000000       0x27 ../fir_bsp/\libucosii_bsp.a(altera_avalon_epcs_flash_controller.o)
 .comment       0x00000000       0x27 ../fir_bsp/\libucosii_bsp.a(altera_avalon_jtag_uart_fd.o)
 .comment       0x00000000       0x27 ../fir_bsp/\libucosii_bsp.a(altera_avalon_jtag_uart_init.o)
 .comment       0x00000000       0x27 ../fir_bsp/\libucosii_bsp.a(altera_avalon_jtag_uart_ioctl.o)
 .comment       0x00000000       0x27 ../fir_bsp/\libucosii_bsp.a(altera_avalon_jtag_uart_read.o)
 .comment       0x00000000       0x27 ../fir_bsp/\libucosii_bsp.a(altera_avalon_jtag_uart_write.o)
 .comment       0x00000000       0x27 ../fir_bsp/\libucosii_bsp.a(altera_avalon_lcd_16207.o)
 .comment       0x00000000       0x27 ../fir_bsp/\libucosii_bsp.a(altera_avalon_lcd_16207_fd.o)
 .comment       0x00000000       0x27 ../fir_bsp/\libucosii_bsp.a(altera_avalon_timer_sc.o)
 .comment       0x00000000       0x27 ../fir_bsp/\libucosii_bsp.a(altera_avalon_uart_fd.o)
 .comment       0x00000000       0x27 ../fir_bsp/\libucosii_bsp.a(altera_avalon_uart_init.o)
 .comment       0x00000000       0x27 ../fir_bsp/\libucosii_bsp.a(altera_avalon_uart_read.o)
 .comment       0x00000000       0x27 ../fir_bsp/\libucosii_bsp.a(altera_avalon_uart_write.o)
 .comment       0x00000000       0x27 ../fir_bsp/\libucosii_bsp.a(epcs_commands.o)
 .comment       0x00000000       0x27 ../fir_bsp/\libucosii_bsp.a(alt_iniche_close.o)
 .comment       0x00000000       0x27 ../fir_bsp/\libucosii_bsp.a(alt_iniche_dev.o)
 .comment       0x00000000       0x27 ../fir_bsp/\libucosii_bsp.a(alt_iniche_read.o)
 .comment       0x00000000       0x27 ../fir_bsp/\libucosii_bsp.a(alt_iniche_write.o)
 .comment       0x00000000       0x27 ../fir_bsp/\libucosii_bsp.a(ipnet.o)
 .comment       0x00000000       0x27 ../fir_bsp/\libucosii_bsp.a(ipstart.o)
 .comment       0x00000000       0x27 ../fir_bsp/\libucosii_bsp.a(igmp_cmn.o)
 .comment       0x00000000       0x27 ../fir_bsp/\libucosii_bsp.a(bsdsock.o)
 .comment       0x00000000       0x27 ../fir_bsp/\libucosii_bsp.a(cksum.o)
 .comment       0x00000000       0x27 ../fir_bsp/\libucosii_bsp.a(in_utils.o)
 .comment       0x00000000       0x27 ../fir_bsp/\libucosii_bsp.a(parseip.o)
 .comment       0x00000000       0x27 ../fir_bsp/\libucosii_bsp.a(tk_crnos.o)
 .comment       0x00000000       0x27 ../fir_bsp/\libucosii_bsp.a(pktalloc.o)
 .comment       0x00000000       0x27 ../fir_bsp/\libucosii_bsp.a(q.o)
 .comment       0x00000000       0x27 ../fir_bsp/\libucosii_bsp.a(brdutils.o)
 .comment       0x00000000       0x27 ../fir_bsp/\libucosii_bsp.a(osportco.o)
 .comment       0x00000000       0x27 ../fir_bsp/\libucosii_bsp.a(targnios.o)
 .comment       0x00000000       0x27 ../fir_bsp/\libucosii_bsp.a(nptcp.o)
 .comment       0x00000000       0x27 ../fir_bsp/\libucosii_bsp.a(rawsock.o)
 .comment       0x00000000       0x27 ../fir_bsp/\libucosii_bsp.a(sockcall.o)
 .comment       0x00000000       0x27 ../fir_bsp/\libucosii_bsp.a(socket.o)
 .comment       0x00000000       0x27 ../fir_bsp/\libucosii_bsp.a(socket2.o)
 .comment       0x00000000       0x27 ../fir_bsp/\libucosii_bsp.a(soselect.o)
 .comment       0x00000000       0x27 ../fir_bsp/\libucosii_bsp.a(tcp_in.o)
 .comment       0x00000000       0x27 ../fir_bsp/\libucosii_bsp.a(tcp_out.o)
 .comment       0x00000000       0x27 ../fir_bsp/\libucosii_bsp.a(tcp_subr.o)
 .comment       0x00000000       0x27 ../fir_bsp/\libucosii_bsp.a(tcp_timr.o)
 .comment       0x00000000       0x27 ../fir_bsp/\libucosii_bsp.a(tcp_usr.o)
 .comment       0x00000000       0x27 ../fir_bsp/\libucosii_bsp.a(tcpport.o)
 .comment       0x00000000       0x27 ../fir_bsp/\libucosii_bsp.a(udpsock.o)
 .comment       0x00000000       0x27 ../fir_bsp/\libucosii_bsp.a(alt_alarm_start.o)
 .comment       0x00000000       0x27 ../fir_bsp/\libucosii_bsp.a(alt_busy_sleep.o)
 .comment       0x00000000       0x27 ../fir_bsp/\libucosii_bsp.a(alt_close.o)
 .comment       0x00000000       0x27 ../fir_bsp/\libucosii_bsp.a(alt_dcache_flush.o)
 .comment       0x00000000       0x27 ../fir_bsp/\libucosii_bsp.a(alt_dev.o)
 .comment       0x00000000       0x27 ../fir_bsp/\libucosii_bsp.a(alt_dev_llist_insert.o)
 .comment       0x00000000       0x27 ../fir_bsp/\libucosii_bsp.a(alt_do_ctors.o)
 .comment       0x00000000       0x27 ../fir_bsp/\libucosii_bsp.a(alt_do_dtors.o)
 .comment       0x00000000       0x27 ../fir_bsp/\libucosii_bsp.a(alt_errno.o)
 .comment       0x00000000       0x27 ../fir_bsp/\libucosii_bsp.a(alt_find_dev.o)
 .comment       0x00000000       0x27 ../fir_bsp/\libucosii_bsp.a(alt_iic.o)
 .comment       0x00000000       0x27 ../fir_bsp/\libucosii_bsp.a(alt_iic_isr_register.o)
 .comment       0x00000000       0x27 ../fir_bsp/\libucosii_bsp.a(alt_io_redirect.o)
 .comment       0x00000000       0x27 ../fir_bsp/\libucosii_bsp.a(alt_irq_handler.o)
 .comment       0x00000000       0x27 ../fir_bsp/\libucosii_bsp.a(alt_open.o)
 .comment       0x00000000       0x27 ../fir_bsp/\libucosii_bsp.a(alt_read.o)
 .comment       0x00000000       0x27 ../fir_bsp/\libucosii_bsp.a(alt_release_fd.o)
 .comment       0x00000000       0x27 ../fir_bsp/\libucosii_bsp.a(alt_remap_cached.o)
 .comment       0x00000000       0x27 ../fir_bsp/\libucosii_bsp.a(alt_remap_uncached.o)
 .comment       0x00000000       0x27 ../fir_bsp/\libucosii_bsp.a(alt_tick.o)
 .comment       0x00000000       0x27 ../fir_bsp/\libucosii_bsp.a(alt_write.o)
 .comment       0x00000000       0x27 ../fir_bsp/\libucosii_bsp.a(altera_nios2_qsys_irq.o)
 .comment       0x00000000       0x27 ../fir_bsp/\libucosii_bsp.a(os_cpu_c.o)
 .comment       0x00000000       0x27 ../fir_bsp/\libucosii_bsp.a(altera_avalon_cfi_flash_amd.o)
 .comment       0x00000000       0x27 ../fir_bsp/\libucosii_bsp.a(altera_avalon_cfi_flash_intel.o)
 .comment       0x00000000       0x27 ../fir_bsp/\libucosii_bsp.a(altera_avalon_spi.o)
 .comment       0x00000000       0x27 ../fir_bsp/\libucosii_bsp.a(allports.o)
 .comment       0x00000000       0x27 ../fir_bsp/\libucosii_bsp.a(tk_misc.o)
 .comment       0x00000000       0x27 ../fir_bsp/\libucosii_bsp.a(alt_iniche_fcntl.o)
 .comment       0x00000000       0x27 ../fir_bsp/\libucosii_bsp.a(et_arp.o)
 .comment       0x00000000       0x27 ../fir_bsp/\libucosii_bsp.a(iface.o)
 .comment       0x00000000       0x27 ../fir_bsp/\libucosii_bsp.a(ip.o)
 .comment       0x00000000       0x27 ../fir_bsp/\libucosii_bsp.a(ipdemux.o)
 .comment       0x00000000       0x27 ../fir_bsp/\libucosii_bsp.a(ipmc.o)
 .comment       0x00000000       0x27 ../fir_bsp/\libucosii_bsp.a(ipport.o)
 .comment       0x00000000       0x27 ../fir_bsp/\libucosii_bsp.a(ipraw.o)
 .comment       0x00000000       0x27 ../fir_bsp/\libucosii_bsp.a(iproute.o)
 .comment       0x00000000       0x27 ../fir_bsp/\libucosii_bsp.a(udp.o)
 .comment       0x00000000       0x27 ../fir_bsp/\libucosii_bsp.a(igmp.o)
 .comment       0x00000000       0x27 ../fir_bsp/\libucosii_bsp.a(igmp2.o)
 .comment       0x00000000       0x27 ../fir_bsp/\libucosii_bsp.a(ipopt.o)
 .comment       0x00000000       0x27 ../fir_bsp/\libucosii_bsp.a(u_mctest.o)
 .comment       0x00000000       0x27 ../fir_bsp/\libucosii_bsp.a(dhcsetup.o)
 .comment       0x00000000       0x27 ../fir_bsp/\libucosii_bsp.a(memdev.o)
 .comment       0x00000000       0x27 ../fir_bsp/\libucosii_bsp.a(netmain.o)
 .comment       0x00000000       0x27 ../fir_bsp/\libucosii_bsp.a(tcpcksum.o)
 .comment       0x00000000       0x27 ../fir_bsp/\libucosii_bsp.a(dhcpclnt.o)
 .comment       0x00000000       0x27 ../fir_bsp/\libucosii_bsp.a(dhcputil.o)
 .comment       0x00000000       0x27 ../fir_bsp/\libucosii_bsp.a(udp_open.o)
 .comment       0x00000000       0x27 ../fir_bsp/\libucosii_bsp.a(in_pcb.o)
 .comment       0x00000000       0x27 ../fir_bsp/\libucosii_bsp.a(vfsfiles.o)
 .comment       0x00000000       0x27 ../fir_bsp/\libucosii_bsp.a(vfsport.o)
 .comment       0x00000000       0x27 ../fir_bsp/\libucosii_bsp.a(alt_fcntl.o)
 .comment       0x00000000       0x27 ../fir_bsp/\libucosii_bsp.a(alt_find_file.o)
 .comment       0x00000000       0x27 ../fir_bsp/\libucosii_bsp.a(alt_get_fd.o)
 .comment       0x00000000       0x27 ../fir_bsp/\libucosii_bsp.a(timeouts.o)
 .comment       0x00000000       0x27 ../fir_bsp/\libucosii_bsp.a(icmp.o)
 .comment       0x00000000       0x27 ../fir_bsp/\libucosii_bsp.a(ip_reasm.o)
 .comment       0x00000000       0x27 d:/altera/13.0sp1/nios2eds/bin/gnu/h-i686-mingw32/bin/../lib/gcc/nios2-elf/4.1.2/../../../../nios2-elf/lib\libc.a(lib_a-atexit.o)
 .comment       0x00000000       0x27 d:/altera/13.0sp1/nios2eds/bin/gnu/h-i686-mingw32/bin/../lib/gcc/nios2-elf/4.1.2/../../../../nios2-elf/lib\libc.a(lib_a-atoi.o)
 .comment       0x00000000       0x27 d:/altera/13.0sp1/nios2eds/bin/gnu/h-i686-mingw32/bin/../lib/gcc/nios2-elf/4.1.2/../../../../nios2-elf/lib\libc.a(lib_a-calloc.o)
 .comment       0x00000000       0x27 d:/altera/13.0sp1/nios2eds/bin/gnu/h-i686-mingw32/bin/../lib/gcc/nios2-elf/4.1.2/../../../../nios2-elf/lib\libc.a(lib_a-memcmp.o)
 .comment       0x00000000       0x27 d:/altera/13.0sp1/nios2eds/bin/gnu/h-i686-mingw32/bin/../lib/gcc/nios2-elf/4.1.2/../../../../nios2-elf/lib\libc.a(lib_a-sprintf.o)
 .comment       0x00000000       0x27 d:/altera/13.0sp1/nios2eds/bin/gnu/h-i686-mingw32/bin/../lib/gcc/nios2-elf/4.1.2/../../../../nios2-elf/lib\libc.a(lib_a-strcpy.o)
 .comment       0x00000000       0x27 d:/altera/13.0sp1/nios2eds/bin/gnu/h-i686-mingw32/bin/../lib/gcc/nios2-elf/4.1.2/../../../../nios2-elf/lib\libc.a(lib_a-strncmp.o)
 .comment       0x00000000       0x27 d:/altera/13.0sp1/nios2eds/bin/gnu/h-i686-mingw32/bin/../lib/gcc/nios2-elf/4.1.2/../../../../nios2-elf/lib\libc.a(lib_a-strncpy.o)
 .comment       0x00000000       0x27 d:/altera/13.0sp1/nios2eds/bin/gnu/h-i686-mingw32/bin/../lib/gcc/nios2-elf/4.1.2/../../../../nios2-elf/lib\libc.a(lib_a-strtol.o)
 .comment       0x00000000       0x27 d:/altera/13.0sp1/nios2eds/bin/gnu/h-i686-mingw32/bin/../lib/gcc/nios2-elf/4.1.2/../../../../nios2-elf/lib\libc.a(lib_a-vprintf.o)
 .comment       0x00000000       0x27 d:/altera/13.0sp1/nios2eds/bin/gnu/h-i686-mingw32/bin/../lib/gcc/nios2-elf/4.1.2/../../../../nios2-elf/lib\libc.a(lib_a-vsprintf.o)
 .comment       0x00000000       0x27 d:/altera/13.0sp1/nios2eds/bin/gnu/h-i686-mingw32/bin/../lib/gcc/nios2-elf/4.1.2/../../../../nios2-elf/lib\libc.a(lib_a-__atexit.o)

.debug
 *(.debug)

.line
 *(.line)

.debug_srcinfo
 *(.debug_srcinfo)

.debug_sfnames
 *(.debug_sfnames)

.debug_aranges  0x00000000     0x1b70
 *(.debug_aranges)
 .debug_aranges
                0x00000000       0x20 ../fir_bsp//obj/HAL/src/crt0.o
 .debug_aranges
                0x00000020       0x20 obj/default/LCD.o
 .debug_aranges
                0x00000040       0x20 obj/default/SSS_DE2_115.o
 .debug_aranges
                0x00000060       0x20 obj/default/alt_error_handler.o
 .debug_aranges
                0x00000080       0x20 obj/default/dm9000a.o
 .debug_aranges
                0x000000a0       0x20 obj/default/iniche_init.o
 .debug_aranges
                0x000000c0       0x20 obj/default/led.o
 .debug_aranges
                0x000000e0       0x20 obj/default/network_utilities.o
 .debug_aranges
                0x00000100       0x20 obj/default/simple_socket_server.o
 .debug_aranges
                0x00000120       0x20 d:/altera/13.0sp1/nios2eds/bin/gnu/h-i686-mingw32/bin/../lib/gcc/nios2-elf/4.1.2\libgcc.a(_fixunsdfsi.o)
 .debug_aranges
                0x00000140       0x20 d:/altera/13.0sp1/nios2eds/bin/gnu/h-i686-mingw32/bin/../lib/gcc/nios2-elf/4.1.2\libgcc.a(_addsub_df.o)
 .debug_aranges
                0x00000160       0x20 d:/altera/13.0sp1/nios2eds/bin/gnu/h-i686-mingw32/bin/../lib/gcc/nios2-elf/4.1.2\libgcc.a(_mul_df.o)
 .debug_aranges
                0x00000180       0x20 d:/altera/13.0sp1/nios2eds/bin/gnu/h-i686-mingw32/bin/../lib/gcc/nios2-elf/4.1.2\libgcc.a(_ge_df.o)
 .debug_aranges
                0x000001a0       0x20 d:/altera/13.0sp1/nios2eds/bin/gnu/h-i686-mingw32/bin/../lib/gcc/nios2-elf/4.1.2\libgcc.a(_df_to_si.o)
 .debug_aranges
                0x000001c0       0x20 d:/altera/13.0sp1/nios2eds/bin/gnu/h-i686-mingw32/bin/../lib/gcc/nios2-elf/4.1.2\libgcc.a(_usi_to_df.o)
 .debug_aranges
                0x000001e0       0x20 d:/altera/13.0sp1/nios2eds/bin/gnu/h-i686-mingw32/bin/../lib/gcc/nios2-elf/4.1.2\libgcc.a(_muldi3.o)
 .debug_aranges
                0x00000200       0x20 d:/altera/13.0sp1/nios2eds/bin/gnu/h-i686-mingw32/bin/../lib/gcc/nios2-elf/4.1.2\libgcc.a(_clzsi2.o)
 .debug_aranges
                0x00000220       0x20 d:/altera/13.0sp1/nios2eds/bin/gnu/h-i686-mingw32/bin/../lib/gcc/nios2-elf/4.1.2\libgcc.a(_pack_df.o)
 .debug_aranges
                0x00000240       0x20 d:/altera/13.0sp1/nios2eds/bin/gnu/h-i686-mingw32/bin/../lib/gcc/nios2-elf/4.1.2\libgcc.a(_unpack_df.o)
 .debug_aranges
                0x00000260       0x20 d:/altera/13.0sp1/nios2eds/bin/gnu/h-i686-mingw32/bin/../lib/gcc/nios2-elf/4.1.2\libgcc.a(_fpcmp_parts_df.o)
 .debug_aranges
                0x00000280       0x20 d:/altera/13.0sp1/nios2eds/bin/gnu/h-i686-mingw32/bin/../lib/gcc/nios2-elf/4.1.2/../../../../nios2-elf/lib\libc.a(lib_a-exit.o)
 .debug_aranges
                0x000002a0       0x20 d:/altera/13.0sp1/nios2eds/bin/gnu/h-i686-mingw32/bin/../lib/gcc/nios2-elf/4.1.2/../../../../nios2-elf/lib\libc.a(lib_a-fprintf.o)
 .debug_aranges
                0x000002c0       0x20 d:/altera/13.0sp1/nios2eds/bin/gnu/h-i686-mingw32/bin/../lib/gcc/nios2-elf/4.1.2/../../../../nios2-elf/lib\libc.a(lib_a-fwrite.o)
 .debug_aranges
                0x000002e0       0x20 d:/altera/13.0sp1/nios2eds/bin/gnu/h-i686-mingw32/bin/../lib/gcc/nios2-elf/4.1.2/../../../../nios2-elf/lib\libc.a(lib_a-getc.o)
 .debug_aranges
                0x00000300       0x20 d:/altera/13.0sp1/nios2eds/bin/gnu/h-i686-mingw32/bin/../lib/gcc/nios2-elf/4.1.2/../../../../nios2-elf/lib\libc.a(lib_a-malloc.o)
 .debug_aranges
                0x00000320       0x20 d:/altera/13.0sp1/nios2eds/bin/gnu/h-i686-mingw32/bin/../lib/gcc/nios2-elf/4.1.2/../../../../nios2-elf/lib\libc.a(lib_a-mallocr.o)
 .debug_aranges
                0x00000340       0x20 d:/altera/13.0sp1/nios2eds/bin/gnu/h-i686-mingw32/bin/../lib/gcc/nios2-elf/4.1.2/../../../../nios2-elf/lib\libc.a(lib_a-memcpy.o)
 .debug_aranges
                0x00000360       0x20 d:/altera/13.0sp1/nios2eds/bin/gnu/h-i686-mingw32/bin/../lib/gcc/nios2-elf/4.1.2/../../../../nios2-elf/lib\libc.a(lib_a-memmove.o)
 .debug_aranges
                0x00000380       0x20 d:/altera/13.0sp1/nios2eds/bin/gnu/h-i686-mingw32/bin/../lib/gcc/nios2-elf/4.1.2/../../../../nios2-elf/lib\libc.a(lib_a-memset.o)
 .debug_aranges
                0x000003a0       0x20 d:/altera/13.0sp1/nios2eds/bin/gnu/h-i686-mingw32/bin/../lib/gcc/nios2-elf/4.1.2/../../../../nios2-elf/lib\libc.a(lib_a-perror.o)
 .debug_aranges
                0x000003c0       0x20 d:/altera/13.0sp1/nios2eds/bin/gnu/h-i686-mingw32/bin/../lib/gcc/nios2-elf/4.1.2/../../../../nios2-elf/lib\libc.a(lib_a-printf.o)
 .debug_aranges
                0x000003e0       0x20 d:/altera/13.0sp1/nios2eds/bin/gnu/h-i686-mingw32/bin/../lib/gcc/nios2-elf/4.1.2/../../../../nios2-elf/lib\libc.a(lib_a-putc.o)
 .debug_aranges
                0x00000400       0x20 d:/altera/13.0sp1/nios2eds/bin/gnu/h-i686-mingw32/bin/../lib/gcc/nios2-elf/4.1.2/../../../../nios2-elf/lib\libc.a(lib_a-putchar.o)
 .debug_aranges
                0x00000420       0x20 d:/altera/13.0sp1/nios2eds/bin/gnu/h-i686-mingw32/bin/../lib/gcc/nios2-elf/4.1.2/../../../../nios2-elf/lib\libc.a(lib_a-puts.o)
 .debug_aranges
                0x00000440       0x20 d:/altera/13.0sp1/nios2eds/bin/gnu/h-i686-mingw32/bin/../lib/gcc/nios2-elf/4.1.2/../../../../nios2-elf/lib\libc.a(lib_a-rget.o)
 .debug_aranges
                0x00000460       0x20 d:/altera/13.0sp1/nios2eds/bin/gnu/h-i686-mingw32/bin/../lib/gcc/nios2-elf/4.1.2/../../../../nios2-elf/lib\libc.a(lib_a-sbrkr.o)
 .debug_aranges
                0x00000480       0x20 d:/altera/13.0sp1/nios2eds/bin/gnu/h-i686-mingw32/bin/../lib/gcc/nios2-elf/4.1.2/../../../../nios2-elf/lib\libc.a(lib_a-strchr.o)
 .debug_aranges
                0x000004a0       0x20 d:/altera/13.0sp1/nios2eds/bin/gnu/h-i686-mingw32/bin/../lib/gcc/nios2-elf/4.1.2/../../../../nios2-elf/lib\libc.a(lib_a-strerror.o)
 .debug_aranges
                0x000004c0       0x20 d:/altera/13.0sp1/nios2eds/bin/gnu/h-i686-mingw32/bin/../lib/gcc/nios2-elf/4.1.2/../../../../nios2-elf/lib\libc.a(lib_a-strlen.o)
 .debug_aranges
                0x000004e0       0x20 d:/altera/13.0sp1/nios2eds/bin/gnu/h-i686-mingw32/bin/../lib/gcc/nios2-elf/4.1.2/../../../../nios2-elf/lib\libc.a(lib_a-u_strerr.o)
 .debug_aranges
                0x00000500       0x20 d:/altera/13.0sp1/nios2eds/bin/gnu/h-i686-mingw32/bin/../lib/gcc/nios2-elf/4.1.2/../../../../nios2-elf/lib\libc.a(lib_a-vfprintf.o)
 .debug_aranges
                0x00000520       0x20 d:/altera/13.0sp1/nios2eds/bin/gnu/h-i686-mingw32/bin/../lib/gcc/nios2-elf/4.1.2/../../../../nios2-elf/lib\libc.a(lib_a-wbuf.o)
 .debug_aranges
                0x00000540       0x20 d:/altera/13.0sp1/nios2eds/bin/gnu/h-i686-mingw32/bin/../lib/gcc/nios2-elf/4.1.2/../../../../nios2-elf/lib\libc.a(lib_a-wsetup.o)
 .debug_aranges
                0x00000560       0x20 d:/altera/13.0sp1/nios2eds/bin/gnu/h-i686-mingw32/bin/../lib/gcc/nios2-elf/4.1.2/../../../../nios2-elf/lib\libc.a(lib_a-__call_atexit.o)
 .debug_aranges
                0x00000580       0x20 d:/altera/13.0sp1/nios2eds/bin/gnu/h-i686-mingw32/bin/../lib/gcc/nios2-elf/4.1.2/../../../../nios2-elf/lib\libc.a(lib_a-dtoa.o)
 .debug_aranges
                0x000005a0       0x20 d:/altera/13.0sp1/nios2eds/bin/gnu/h-i686-mingw32/bin/../lib/gcc/nios2-elf/4.1.2/../../../../nios2-elf/lib\libc.a(lib_a-fflush.o)
 .debug_aranges
                0x000005c0       0x20 d:/altera/13.0sp1/nios2eds/bin/gnu/h-i686-mingw32/bin/../lib/gcc/nios2-elf/4.1.2/../../../../nios2-elf/lib\libc.a(lib_a-findfp.o)
 .debug_aranges
                0x000005e0       0x20 d:/altera/13.0sp1/nios2eds/bin/gnu/h-i686-mingw32/bin/../lib/gcc/nios2-elf/4.1.2/../../../../nios2-elf/lib\libc.a(lib_a-fputc.o)
 .debug_aranges
                0x00000600       0x20 d:/altera/13.0sp1/nios2eds/bin/gnu/h-i686-mingw32/bin/../lib/gcc/nios2-elf/4.1.2/../../../../nios2-elf/lib\libc.a(lib_a-fputs.o)
 .debug_aranges
                0x00000620       0x20 d:/altera/13.0sp1/nios2eds/bin/gnu/h-i686-mingw32/bin/../lib/gcc/nios2-elf/4.1.2/../../../../nios2-elf/lib\libc.a(lib_a-freer.o)
 .debug_aranges
                0x00000640       0x20 d:/altera/13.0sp1/nios2eds/bin/gnu/h-i686-mingw32/bin/../lib/gcc/nios2-elf/4.1.2/../../../../nios2-elf/lib\libc.a(lib_a-fvwrite.o)
 .debug_aranges
                0x00000660       0x20 d:/altera/13.0sp1/nios2eds/bin/gnu/h-i686-mingw32/bin/../lib/gcc/nios2-elf/4.1.2/../../../../nios2-elf/lib\libc.a(lib_a-fwalk.o)
 .debug_aranges
                0x00000680       0x20 d:/altera/13.0sp1/nios2eds/bin/gnu/h-i686-mingw32/bin/../lib/gcc/nios2-elf/4.1.2/../../../../nios2-elf/lib\libc.a(lib_a-locale.o)
 .debug_aranges
                0x000006a0       0x20 d:/altera/13.0sp1/nios2eds/bin/gnu/h-i686-mingw32/bin/../lib/gcc/nios2-elf/4.1.2/../../../../nios2-elf/lib\libc.a(lib_a-makebuf.o)
 .debug_aranges
                0x000006c0       0x20 d:/altera/13.0sp1/nios2eds/bin/gnu/h-i686-mingw32/bin/../lib/gcc/nios2-elf/4.1.2/../../../../nios2-elf/lib\libc.a(lib_a-memchr.o)
 .debug_aranges
                0x000006e0       0x20 d:/altera/13.0sp1/nios2eds/bin/gnu/h-i686-mingw32/bin/../lib/gcc/nios2-elf/4.1.2/../../../../nios2-elf/lib\libc.a(lib_a-mprec.o)
 .debug_aranges
                0x00000700       0x20 d:/altera/13.0sp1/nios2eds/bin/gnu/h-i686-mingw32/bin/../lib/gcc/nios2-elf/4.1.2/../../../../nios2-elf/lib\libc.a(lib_a-reallocr.o)
 .debug_aranges
                0x00000720       0x20 d:/altera/13.0sp1/nios2eds/bin/gnu/h-i686-mingw32/bin/../lib/gcc/nios2-elf/4.1.2/../../../../nios2-elf/lib\libc.a(lib_a-refill.o)
 .debug_aranges
                0x00000740       0x20 d:/altera/13.0sp1/nios2eds/bin/gnu/h-i686-mingw32/bin/../lib/gcc/nios2-elf/4.1.2/../../../../nios2-elf/lib\libc.a(lib_a-s_isinfd.o)
 .debug_aranges
                0x00000760       0x20 d:/altera/13.0sp1/nios2eds/bin/gnu/h-i686-mingw32/bin/../lib/gcc/nios2-elf/4.1.2/../../../../nios2-elf/lib\libc.a(lib_a-s_isnand.o)
 .debug_aranges
                0x00000780       0x20 d:/altera/13.0sp1/nios2eds/bin/gnu/h-i686-mingw32/bin/../lib/gcc/nios2-elf/4.1.2/../../../../nios2-elf/lib\libc.a(lib_a-stdio.o)
 .debug_aranges
                0x000007a0       0x20 d:/altera/13.0sp1/nios2eds/bin/gnu/h-i686-mingw32/bin/../lib/gcc/nios2-elf/4.1.2/../../../../nios2-elf/lib\libc.a(lib_a-strcmp.o)
 .debug_aranges
                0x000007c0       0x20 d:/altera/13.0sp1/nios2eds/bin/gnu/h-i686-mingw32/bin/../lib/gcc/nios2-elf/4.1.2/../../../../nios2-elf/lib\libc.a(lib_a-writer.o)
 .debug_aranges
                0x000007e0       0x20 d:/altera/13.0sp1/nios2eds/bin/gnu/h-i686-mingw32/bin/../lib/gcc/nios2-elf/4.1.2/../../../../nios2-elf/lib\libc.a(lib_a-callocr.o)
 .debug_aranges
                0x00000800       0x20 d:/altera/13.0sp1/nios2eds/bin/gnu/h-i686-mingw32/bin/../lib/gcc/nios2-elf/4.1.2/../../../../nios2-elf/lib\libc.a(lib_a-closer.o)
 .debug_aranges
                0x00000820       0x20 d:/altera/13.0sp1/nios2eds/bin/gnu/h-i686-mingw32/bin/../lib/gcc/nios2-elf/4.1.2/../../../../nios2-elf/lib\libc.a(lib_a-fclose.o)
 .debug_aranges
                0x00000840       0x20 d:/altera/13.0sp1/nios2eds/bin/gnu/h-i686-mingw32/bin/../lib/gcc/nios2-elf/4.1.2/../../../../nios2-elf/lib\libc.a(lib_a-fstatr.o)
 .debug_aranges
                0x00000860       0x20 d:/altera/13.0sp1/nios2eds/bin/gnu/h-i686-mingw32/bin/../lib/gcc/nios2-elf/4.1.2/../../../../nios2-elf/lib\libc.a(lib_a-isattyr.o)
 .debug_aranges
                0x00000880       0x20 d:/altera/13.0sp1/nios2eds/bin/gnu/h-i686-mingw32/bin/../lib/gcc/nios2-elf/4.1.2/../../../../nios2-elf/lib\libc.a(lib_a-lseekr.o)
 .debug_aranges
                0x000008a0       0x20 d:/altera/13.0sp1/nios2eds/bin/gnu/h-i686-mingw32/bin/../lib/gcc/nios2-elf/4.1.2/../../../../nios2-elf/lib\libc.a(lib_a-readr.o)
 .debug_aranges
                0x000008c0       0x20 d:/altera/13.0sp1/nios2eds/bin/gnu/h-i686-mingw32/bin/../lib/gcc/nios2-elf/4.1.2\libgcc.a(_udivdi3.o)
 .debug_aranges
                0x000008e0       0x20 d:/altera/13.0sp1/nios2eds/bin/gnu/h-i686-mingw32/bin/../lib/gcc/nios2-elf/4.1.2\libgcc.a(_umoddi3.o)
 .debug_aranges
                0x00000900       0x20 d:/altera/13.0sp1/nios2eds/bin/gnu/h-i686-mingw32/bin/../lib/gcc/nios2-elf/4.1.2\libgcc.a(_div_df.o)
 .debug_aranges
                0x00000920       0x20 d:/altera/13.0sp1/nios2eds/bin/gnu/h-i686-mingw32/bin/../lib/gcc/nios2-elf/4.1.2\libgcc.a(_eq_df.o)
 .debug_aranges
                0x00000940       0x20 d:/altera/13.0sp1/nios2eds/bin/gnu/h-i686-mingw32/bin/../lib/gcc/nios2-elf/4.1.2\libgcc.a(_ne_df.o)
 .debug_aranges
                0x00000960       0x20 d:/altera/13.0sp1/nios2eds/bin/gnu/h-i686-mingw32/bin/../lib/gcc/nios2-elf/4.1.2\libgcc.a(_gt_df.o)
 .debug_aranges
                0x00000980       0x20 d:/altera/13.0sp1/nios2eds/bin/gnu/h-i686-mingw32/bin/../lib/gcc/nios2-elf/4.1.2\libgcc.a(_lt_df.o)
 .debug_aranges
                0x000009a0       0x20 d:/altera/13.0sp1/nios2eds/bin/gnu/h-i686-mingw32/bin/../lib/gcc/nios2-elf/4.1.2\libgcc.a(_si_to_df.o)
 .debug_aranges
                0x000009c0       0x20 d:/altera/13.0sp1/nios2eds/bin/gnu/h-i686-mingw32/bin/../lib/gcc/nios2-elf/4.1.2\libgcc.a(lib2-divmod.o)
 .debug_aranges
                0x000009e0       0x20 ../fir_bsp/\libucosii_bsp.a(alt_exit.o)
 .debug_aranges
                0x00000a00       0x20 ../fir_bsp/\libucosii_bsp.a(alt_flash_dev.o)
 .debug_aranges
                0x00000a20       0x20 ../fir_bsp/\libucosii_bsp.a(alt_fstat.o)
 .debug_aranges
                0x00000a40       0x20 ../fir_bsp/\libucosii_bsp.a(alt_irq_register.o)
 .debug_aranges
                0x00000a60       0x20 ../fir_bsp/\libucosii_bsp.a(alt_isatty.o)
 .debug_aranges
                0x00000a80       0x20 ../fir_bsp/\libucosii_bsp.a(alt_lseek.o)
 .debug_aranges
                0x00000aa0       0x20 ../fir_bsp/\libucosii_bsp.a(alt_main.o)
 .debug_aranges
                0x00000ac0       0x20 ../fir_bsp/\libucosii_bsp.a(alt_sbrk.o)
 .debug_aranges
                0x00000ae0       0x20 ../fir_bsp/\libucosii_bsp.a(alt_usleep.o)
 .debug_aranges
                0x00000b00       0x20 ../fir_bsp/\libucosii_bsp.a(alt_env_lock.o)
 .debug_aranges
                0x00000b20       0x20 ../fir_bsp/\libucosii_bsp.a(alt_malloc_lock.o)
 .debug_aranges
                0x00000b40       0x20 ../fir_bsp/\libucosii_bsp.a(os_core.o)
 .debug_aranges
                0x00000b60       0x20 ../fir_bsp/\libucosii_bsp.a(os_dbg.o)
 .debug_aranges
                0x00000b80       0x20 ../fir_bsp/\libucosii_bsp.a(os_flag.o)
 .debug_aranges
                0x00000ba0       0x20 ../fir_bsp/\libucosii_bsp.a(os_mem.o)
 .debug_aranges
                0x00000bc0       0x20 ../fir_bsp/\libucosii_bsp.a(os_q.o)
 .debug_aranges
                0x00000be0       0x20 ../fir_bsp/\libucosii_bsp.a(os_sem.o)
 .debug_aranges
                0x00000c00       0x20 ../fir_bsp/\libucosii_bsp.a(os_task.o)
 .debug_aranges
                0x00000c20       0x20 ../fir_bsp/\libucosii_bsp.a(os_time.o)
 .debug_aranges
                0x00000c40       0x20 ../fir_bsp/\libucosii_bsp.a(alt_sys_init.o)
 .debug_aranges
                0x00000c60       0x20 ../fir_bsp/\libucosii_bsp.a(altera_avalon_cfi_flash.o)
 .debug_aranges
                0x00000c80       0x20 ../fir_bsp/\libucosii_bsp.a(altera_avalon_cfi_flash_table.o)
 .debug_aranges
                0x00000ca0       0x20 ../fir_bsp/\libucosii_bsp.a(altera_avalon_epcs_flash_controller.o)
 .debug_aranges
                0x00000cc0       0x20 ../fir_bsp/\libucosii_bsp.a(altera_avalon_jtag_uart_fd.o)
 .debug_aranges
                0x00000ce0       0x20 ../fir_bsp/\libucosii_bsp.a(altera_avalon_jtag_uart_init.o)
 .debug_aranges
                0x00000d00       0x20 ../fir_bsp/\libucosii_bsp.a(altera_avalon_jtag_uart_ioctl.o)
 .debug_aranges
                0x00000d20       0x20 ../fir_bsp/\libucosii_bsp.a(altera_avalon_jtag_uart_read.o)
 .debug_aranges
                0x00000d40       0x20 ../fir_bsp/\libucosii_bsp.a(altera_avalon_jtag_uart_write.o)
 .debug_aranges
                0x00000d60       0x20 ../fir_bsp/\libucosii_bsp.a(altera_avalon_lcd_16207.o)
 .debug_aranges
                0x00000d80       0x20 ../fir_bsp/\libucosii_bsp.a(altera_avalon_lcd_16207_fd.o)
 .debug_aranges
                0x00000da0       0x20 ../fir_bsp/\libucosii_bsp.a(altera_avalon_timer_sc.o)
 .debug_aranges
                0x00000dc0       0x20 ../fir_bsp/\libucosii_bsp.a(altera_avalon_uart_fd.o)
 .debug_aranges
                0x00000de0       0x20 ../fir_bsp/\libucosii_bsp.a(altera_avalon_uart_init.o)
 .debug_aranges
                0x00000e00       0x20 ../fir_bsp/\libucosii_bsp.a(altera_avalon_uart_read.o)
 .debug_aranges
                0x00000e20       0x20 ../fir_bsp/\libucosii_bsp.a(altera_avalon_uart_write.o)
 .debug_aranges
                0x00000e40       0x20 ../fir_bsp/\libucosii_bsp.a(epcs_commands.o)
 .debug_aranges
                0x00000e60       0x20 ../fir_bsp/\libucosii_bsp.a(alt_iniche_close.o)
 .debug_aranges
                0x00000e80       0x20 ../fir_bsp/\libucosii_bsp.a(alt_iniche_dev.o)
 .debug_aranges
                0x00000ea0       0x20 ../fir_bsp/\libucosii_bsp.a(alt_iniche_read.o)
 .debug_aranges
                0x00000ec0       0x20 ../fir_bsp/\libucosii_bsp.a(alt_iniche_write.o)
 .debug_aranges
                0x00000ee0       0x20 ../fir_bsp/\libucosii_bsp.a(ipnet.o)
 .debug_aranges
                0x00000f00       0x20 ../fir_bsp/\libucosii_bsp.a(ipstart.o)
 .debug_aranges
                0x00000f20       0x20 ../fir_bsp/\libucosii_bsp.a(igmp_cmn.o)
 .debug_aranges
                0x00000f40       0x20 ../fir_bsp/\libucosii_bsp.a(bsdsock.o)
 .debug_aranges
                0x00000f60       0x20 ../fir_bsp/\libucosii_bsp.a(cksum.o)
 .debug_aranges
                0x00000f80       0x20 ../fir_bsp/\libucosii_bsp.a(in_utils.o)
 .debug_aranges
                0x00000fa0       0x20 ../fir_bsp/\libucosii_bsp.a(parseip.o)
 .debug_aranges
                0x00000fc0       0x20 ../fir_bsp/\libucosii_bsp.a(tk_crnos.o)
 .debug_aranges
                0x00000fe0       0x20 ../fir_bsp/\libucosii_bsp.a(pktalloc.o)
 .debug_aranges
                0x00001000       0x20 ../fir_bsp/\libucosii_bsp.a(q.o)
 .debug_aranges
                0x00001020       0x20 ../fir_bsp/\libucosii_bsp.a(asm_cksum.o)
 .debug_aranges
                0x00001040       0x20 ../fir_bsp/\libucosii_bsp.a(brdutils.o)
 .debug_aranges
                0x00001060       0x20 ../fir_bsp/\libucosii_bsp.a(osportco.o)
 .debug_aranges
                0x00001080       0x20 ../fir_bsp/\libucosii_bsp.a(targnios.o)
 .debug_aranges
                0x000010a0       0x20 ../fir_bsp/\libucosii_bsp.a(nptcp.o)
 .debug_aranges
                0x000010c0       0x20 ../fir_bsp/\libucosii_bsp.a(rawsock.o)
 .debug_aranges
                0x000010e0       0x20 ../fir_bsp/\libucosii_bsp.a(sockcall.o)
 .debug_aranges
                0x00001100       0x20 ../fir_bsp/\libucosii_bsp.a(socket.o)
 .debug_aranges
                0x00001120       0x20 ../fir_bsp/\libucosii_bsp.a(socket2.o)
 .debug_aranges
                0x00001140       0x20 ../fir_bsp/\libucosii_bsp.a(soselect.o)
 .debug_aranges
                0x00001160       0x20 ../fir_bsp/\libucosii_bsp.a(tcp_in.o)
 .debug_aranges
                0x00001180       0x20 ../fir_bsp/\libucosii_bsp.a(tcp_out.o)
 .debug_aranges
                0x000011a0       0x20 ../fir_bsp/\libucosii_bsp.a(tcp_subr.o)
 .debug_aranges
                0x000011c0       0x20 ../fir_bsp/\libucosii_bsp.a(tcp_timr.o)
 .debug_aranges
                0x000011e0       0x20 ../fir_bsp/\libucosii_bsp.a(tcp_usr.o)
 .debug_aranges
                0x00001200       0x20 ../fir_bsp/\libucosii_bsp.a(tcpport.o)
 .debug_aranges
                0x00001220       0x20 ../fir_bsp/\libucosii_bsp.a(udpsock.o)
 .debug_aranges
                0x00001240       0x20 ../fir_bsp/\libucosii_bsp.a(alt_alarm_start.o)
 .debug_aranges
                0x00001260       0x20 ../fir_bsp/\libucosii_bsp.a(alt_busy_sleep.o)
 .debug_aranges
                0x00001280       0x20 ../fir_bsp/\libucosii_bsp.a(alt_close.o)
 .debug_aranges
                0x000012a0       0x20 ../fir_bsp/\libucosii_bsp.a(alt_dcache_flush.o)
 .debug_aranges
                0x000012c0       0x20 ../fir_bsp/\libucosii_bsp.a(alt_dev.o)
 .debug_aranges
                0x000012e0       0x20 ../fir_bsp/\libucosii_bsp.a(alt_dev_llist_insert.o)
 .debug_aranges
                0x00001300       0x20 ../fir_bsp/\libucosii_bsp.a(alt_do_ctors.o)
 .debug_aranges
                0x00001320       0x20 ../fir_bsp/\libucosii_bsp.a(alt_do_dtors.o)
 .debug_aranges
                0x00001340       0x20 ../fir_bsp/\libucosii_bsp.a(alt_find_dev.o)
 .debug_aranges
                0x00001360       0x20 ../fir_bsp/\libucosii_bsp.a(alt_iic.o)
 .debug_aranges
                0x00001380       0x20 ../fir_bsp/\libucosii_bsp.a(alt_iic_isr_register.o)
 .debug_aranges
                0x000013a0       0x20 ../fir_bsp/\libucosii_bsp.a(alt_io_redirect.o)
 .debug_aranges
                0x000013c0       0x30 ../fir_bsp/\libucosii_bsp.a(alt_irq_entry.o)
 .debug_aranges
                0x000013f0       0x28 ../fir_bsp/\libucosii_bsp.a(alt_irq_handler.o)
 .debug_aranges
                0x00001418       0x20 ../fir_bsp/\libucosii_bsp.a(alt_open.o)
 .debug_aranges
                0x00001438       0x20 ../fir_bsp/\libucosii_bsp.a(alt_read.o)
 .debug_aranges
                0x00001458       0x20 ../fir_bsp/\libucosii_bsp.a(alt_release_fd.o)
 .debug_aranges
                0x00001478       0x20 ../fir_bsp/\libucosii_bsp.a(alt_remap_cached.o)
 .debug_aranges
                0x00001498       0x20 ../fir_bsp/\libucosii_bsp.a(alt_remap_uncached.o)
 .debug_aranges
                0x000014b8       0x20 ../fir_bsp/\libucosii_bsp.a(alt_tick.o)
 .debug_aranges
                0x000014d8       0x20 ../fir_bsp/\libucosii_bsp.a(alt_write.o)
 .debug_aranges
                0x000014f8       0x20 ../fir_bsp/\libucosii_bsp.a(altera_nios2_qsys_irq.o)
 .debug_aranges
                0x00001518       0x20 ../fir_bsp/\libucosii_bsp.a(os_cpu_a.o)
 .debug_aranges
                0x00001538       0x20 ../fir_bsp/\libucosii_bsp.a(os_cpu_c.o)
 .debug_aranges
                0x00001558       0x20 ../fir_bsp/\libucosii_bsp.a(altera_avalon_cfi_flash_amd.o)
 .debug_aranges
                0x00001578       0x20 ../fir_bsp/\libucosii_bsp.a(altera_avalon_cfi_flash_intel.o)
 .debug_aranges
                0x00001598       0x20 ../fir_bsp/\libucosii_bsp.a(altera_avalon_spi.o)
 .debug_aranges
                0x000015b8       0x20 ../fir_bsp/\libucosii_bsp.a(allports.o)
 .debug_aranges
                0x000015d8       0x20 ../fir_bsp/\libucosii_bsp.a(tk_misc.o)
 .debug_aranges
                0x000015f8       0x20 ../fir_bsp/\libucosii_bsp.a(alt_iniche_fcntl.o)
 .debug_aranges
                0x00001618       0x20 ../fir_bsp/\libucosii_bsp.a(et_arp.o)
 .debug_aranges
                0x00001638       0x20 ../fir_bsp/\libucosii_bsp.a(iface.o)
 .debug_aranges
                0x00001658       0x20 ../fir_bsp/\libucosii_bsp.a(ip.o)
 .debug_aranges
                0x00001678       0x20 ../fir_bsp/\libucosii_bsp.a(ipdemux.o)
 .debug_aranges
                0x00001698       0x20 ../fir_bsp/\libucosii_bsp.a(ipmc.o)
 .debug_aranges
                0x000016b8       0x20 ../fir_bsp/\libucosii_bsp.a(ipport.o)
 .debug_aranges
                0x000016d8       0x20 ../fir_bsp/\libucosii_bsp.a(ipraw.o)
 .debug_aranges
                0x000016f8       0x20 ../fir_bsp/\libucosii_bsp.a(iproute.o)
 .debug_aranges
                0x00001718       0x20 ../fir_bsp/\libucosii_bsp.a(udp.o)
 .debug_aranges
                0x00001738       0x20 ../fir_bsp/\libucosii_bsp.a(igmp.o)
 .debug_aranges
                0x00001758       0x20 ../fir_bsp/\libucosii_bsp.a(igmp2.o)
 .debug_aranges
                0x00001778       0x20 ../fir_bsp/\libucosii_bsp.a(ipopt.o)
 .debug_aranges
                0x00001798       0x20 ../fir_bsp/\libucosii_bsp.a(u_mctest.o)
 .debug_aranges
                0x000017b8       0x20 ../fir_bsp/\libucosii_bsp.a(dhcsetup.o)
 .debug_aranges
                0x000017d8       0x20 ../fir_bsp/\libucosii_bsp.a(memdev.o)
 .debug_aranges
                0x000017f8       0x20 ../fir_bsp/\libucosii_bsp.a(netmain.o)
 .debug_aranges
                0x00001818       0x20 ../fir_bsp/\libucosii_bsp.a(tcpcksum.o)
 .debug_aranges
                0x00001838       0x20 ../fir_bsp/\libucosii_bsp.a(dhcpclnt.o)
 .debug_aranges
                0x00001858       0x20 ../fir_bsp/\libucosii_bsp.a(dhcputil.o)
 .debug_aranges
                0x00001878       0x20 ../fir_bsp/\libucosii_bsp.a(udp_open.o)
 .debug_aranges
                0x00001898       0x20 ../fir_bsp/\libucosii_bsp.a(in_pcb.o)
 .debug_aranges
                0x000018b8       0x20 ../fir_bsp/\libucosii_bsp.a(vfsfiles.o)
 .debug_aranges
                0x000018d8       0x20 ../fir_bsp/\libucosii_bsp.a(vfsport.o)
 .debug_aranges
                0x000018f8       0x38 ../fir_bsp/\libucosii_bsp.a(alt_exception_entry.o)
 .debug_aranges
                0x00001930       0x20 ../fir_bsp/\libucosii_bsp.a(alt_fcntl.o)
 .debug_aranges
                0x00001950       0x20 ../fir_bsp/\libucosii_bsp.a(alt_find_file.o)
 .debug_aranges
                0x00001970       0x20 ../fir_bsp/\libucosii_bsp.a(alt_get_fd.o)
 .debug_aranges
                0x00001990       0x20 ../fir_bsp/\libucosii_bsp.a(timeouts.o)
 .debug_aranges
                0x000019b0       0x20 ../fir_bsp/\libucosii_bsp.a(icmp.o)
 .debug_aranges
                0x000019d0       0x20 ../fir_bsp/\libucosii_bsp.a(ip_reasm.o)
 .debug_aranges
                0x000019f0       0x20 d:/altera/13.0sp1/nios2eds/bin/gnu/h-i686-mingw32/bin/../lib/gcc/nios2-elf/4.1.2/../../../../nios2-elf/lib\libc.a(lib_a-atexit.o)
 .debug_aranges
                0x00001a10       0x20 d:/altera/13.0sp1/nios2eds/bin/gnu/h-i686-mingw32/bin/../lib/gcc/nios2-elf/4.1.2/../../../../nios2-elf/lib\libc.a(lib_a-atoi.o)
 .debug_aranges
                0x00001a30       0x20 d:/altera/13.0sp1/nios2eds/bin/gnu/h-i686-mingw32/bin/../lib/gcc/nios2-elf/4.1.2/../../../../nios2-elf/lib\libc.a(lib_a-calloc.o)
 .debug_aranges
                0x00001a50       0x20 d:/altera/13.0sp1/nios2eds/bin/gnu/h-i686-mingw32/bin/../lib/gcc/nios2-elf/4.1.2/../../../../nios2-elf/lib\libc.a(lib_a-memcmp.o)
 .debug_aranges
                0x00001a70       0x20 d:/altera/13.0sp1/nios2eds/bin/gnu/h-i686-mingw32/bin/../lib/gcc/nios2-elf/4.1.2/../../../../nios2-elf/lib\libc.a(lib_a-sprintf.o)
 .debug_aranges
                0x00001a90       0x20 d:/altera/13.0sp1/nios2eds/bin/gnu/h-i686-mingw32/bin/../lib/gcc/nios2-elf/4.1.2/../../../../nios2-elf/lib\libc.a(lib_a-strcpy.o)
 .debug_aranges
                0x00001ab0       0x20 d:/altera/13.0sp1/nios2eds/bin/gnu/h-i686-mingw32/bin/../lib/gcc/nios2-elf/4.1.2/../../../../nios2-elf/lib\libc.a(lib_a-strncmp.o)
 .debug_aranges
                0x00001ad0       0x20 d:/altera/13.0sp1/nios2eds/bin/gnu/h-i686-mingw32/bin/../lib/gcc/nios2-elf/4.1.2/../../../../nios2-elf/lib\libc.a(lib_a-strncpy.o)
 .debug_aranges
                0x00001af0       0x20 d:/altera/13.0sp1/nios2eds/bin/gnu/h-i686-mingw32/bin/../lib/gcc/nios2-elf/4.1.2/../../../../nios2-elf/lib\libc.a(lib_a-strtol.o)
 .debug_aranges
                0x00001b10       0x20 d:/altera/13.0sp1/nios2eds/bin/gnu/h-i686-mingw32/bin/../lib/gcc/nios2-elf/4.1.2/../../../../nios2-elf/lib\libc.a(lib_a-vprintf.o)
 .debug_aranges
                0x00001b30       0x20 d:/altera/13.0sp1/nios2eds/bin/gnu/h-i686-mingw32/bin/../lib/gcc/nios2-elf/4.1.2/../../../../nios2-elf/lib\libc.a(lib_a-vsprintf.o)
 .debug_aranges
                0x00001b50       0x20 d:/altera/13.0sp1/nios2eds/bin/gnu/h-i686-mingw32/bin/../lib/gcc/nios2-elf/4.1.2/../../../../nios2-elf/lib\libc.a(lib_a-__atexit.o)

.debug_pubnames
                0x00000000     0x5611
 *(.debug_pubnames)
 .debug_pubnames
                0x00000000       0x68 obj/default/LCD.o
 .debug_pubnames
                0x00000068       0x7c obj/default/SSS_DE2_115.o
 .debug_pubnames
                0x000000e4       0x61 obj/default/alt_error_handler.o
 .debug_pubnames
                0x00000145      0x102 obj/default/dm9000a.o
 .debug_pubnames
                0x00000247       0xa6 obj/default/iniche_init.o
 .debug_pubnames
                0x000002ed       0x54 obj/default/led.o
 .debug_pubnames
                0x00000341       0xc9 obj/default/network_utilities.o
 .debug_pubnames
                0x0000040a      0x154 obj/default/simple_socket_server.o
 .debug_pubnames
                0x0000055e       0x23 d:/altera/13.0sp1/nios2eds/bin/gnu/h-i686-mingw32/bin/../lib/gcc/nios2-elf/4.1.2\libgcc.a(_fixunsdfsi.o)
 .debug_pubnames
                0x00000581       0x2c d:/altera/13.0sp1/nios2eds/bin/gnu/h-i686-mingw32/bin/../lib/gcc/nios2-elf/4.1.2\libgcc.a(_addsub_df.o)
 .debug_pubnames
                0x000005ad       0x1f d:/altera/13.0sp1/nios2eds/bin/gnu/h-i686-mingw32/bin/../lib/gcc/nios2-elf/4.1.2\libgcc.a(_mul_df.o)
 .debug_pubnames
                0x000005cc       0x1e d:/altera/13.0sp1/nios2eds/bin/gnu/h-i686-mingw32/bin/../lib/gcc/nios2-elf/4.1.2\libgcc.a(_ge_df.o)
 .debug_pubnames
                0x000005ea       0x20 d:/altera/13.0sp1/nios2eds/bin/gnu/h-i686-mingw32/bin/../lib/gcc/nios2-elf/4.1.2\libgcc.a(_df_to_si.o)
 .debug_pubnames
                0x0000060a       0x22 d:/altera/13.0sp1/nios2eds/bin/gnu/h-i686-mingw32/bin/../lib/gcc/nios2-elf/4.1.2\libgcc.a(_thenan_df.o)
 .debug_pubnames
                0x0000062c       0x24 d:/altera/13.0sp1/nios2eds/bin/gnu/h-i686-mingw32/bin/../lib/gcc/nios2-elf/4.1.2\libgcc.a(_usi_to_df.o)
 .debug_pubnames
                0x00000650       0x1f d:/altera/13.0sp1/nios2eds/bin/gnu/h-i686-mingw32/bin/../lib/gcc/nios2-elf/4.1.2\libgcc.a(_muldi3.o)
 .debug_pubnames
                0x0000066f       0x1f d:/altera/13.0sp1/nios2eds/bin/gnu/h-i686-mingw32/bin/../lib/gcc/nios2-elf/4.1.2\libgcc.a(_clzsi2.o)
 .debug_pubnames
                0x0000068e       0x1f d:/altera/13.0sp1/nios2eds/bin/gnu/h-i686-mingw32/bin/../lib/gcc/nios2-elf/4.1.2\libgcc.a(_pack_df.o)
 .debug_pubnames
                0x000006ad       0x21 d:/altera/13.0sp1/nios2eds/bin/gnu/h-i686-mingw32/bin/../lib/gcc/nios2-elf/4.1.2\libgcc.a(_unpack_df.o)
 .debug_pubnames
                0x000006ce       0x26 d:/altera/13.0sp1/nios2eds/bin/gnu/h-i686-mingw32/bin/../lib/gcc/nios2-elf/4.1.2\libgcc.a(_fpcmp_parts_df.o)
 .debug_pubnames
                0x000006f4       0x20 d:/altera/13.0sp1/nios2eds/bin/gnu/h-i686-mingw32/bin/../lib/gcc/nios2-elf/4.1.2\libgcc.a(_clz.o)
 .debug_pubnames
                0x00000714       0x2e d:/altera/13.0sp1/nios2eds/bin/gnu/h-i686-mingw32/bin/../lib/gcc/nios2-elf/4.1.2/../../../../nios2-elf/lib\libc.a(lib_a-ctype_.o)
 .debug_pubnames
                0x00000742       0x1b d:/altera/13.0sp1/nios2eds/bin/gnu/h-i686-mingw32/bin/../lib/gcc/nios2-elf/4.1.2/../../../../nios2-elf/lib\libc.a(lib_a-exit.o)
 .debug_pubnames
                0x0000075d       0x2d d:/altera/13.0sp1/nios2eds/bin/gnu/h-i686-mingw32/bin/../lib/gcc/nios2-elf/4.1.2/../../../../nios2-elf/lib\libc.a(lib_a-fprintf.o)
 .debug_pubnames
                0x0000078a       0x2b d:/altera/13.0sp1/nios2eds/bin/gnu/h-i686-mingw32/bin/../lib/gcc/nios2-elf/4.1.2/../../../../nios2-elf/lib\libc.a(lib_a-fwrite.o)
 .debug_pubnames
                0x000007b5       0x27 d:/altera/13.0sp1/nios2eds/bin/gnu/h-i686-mingw32/bin/../lib/gcc/nios2-elf/4.1.2/../../../../nios2-elf/lib\libc.a(lib_a-getc.o)
 .debug_pubnames
                0x000007dc       0x39 d:/altera/13.0sp1/nios2eds/bin/gnu/h-i686-mingw32/bin/../lib/gcc/nios2-elf/4.1.2/../../../../nios2-elf/lib\libc.a(lib_a-impure.o)
 .debug_pubnames
                0x00000815       0x26 d:/altera/13.0sp1/nios2eds/bin/gnu/h-i686-mingw32/bin/../lib/gcc/nios2-elf/4.1.2/../../../../nios2-elf/lib\libc.a(lib_a-malloc.o)
 .debug_pubnames
                0x0000083b       0xce d:/altera/13.0sp1/nios2eds/bin/gnu/h-i686-mingw32/bin/../lib/gcc/nios2-elf/4.1.2/../../../../nios2-elf/lib\libc.a(lib_a-mallocr.o)
 .debug_pubnames
                0x00000909       0x1d d:/altera/13.0sp1/nios2eds/bin/gnu/h-i686-mingw32/bin/../lib/gcc/nios2-elf/4.1.2/../../../../nios2-elf/lib\libc.a(lib_a-memcpy.o)
 .debug_pubnames
                0x00000926       0x1e d:/altera/13.0sp1/nios2eds/bin/gnu/h-i686-mingw32/bin/../lib/gcc/nios2-elf/4.1.2/../../../../nios2-elf/lib\libc.a(lib_a-memmove.o)
 .debug_pubnames
                0x00000944       0x1d d:/altera/13.0sp1/nios2eds/bin/gnu/h-i686-mingw32/bin/../lib/gcc/nios2-elf/4.1.2/../../../../nios2-elf/lib\libc.a(lib_a-memset.o)
 .debug_pubnames
                0x00000961       0x2b d:/altera/13.0sp1/nios2eds/bin/gnu/h-i686-mingw32/bin/../lib/gcc/nios2-elf/4.1.2/../../../../nios2-elf/lib\libc.a(lib_a-perror.o)
 .debug_pubnames
                0x0000098c       0x2b d:/altera/13.0sp1/nios2eds/bin/gnu/h-i686-mingw32/bin/../lib/gcc/nios2-elf/4.1.2/../../../../nios2-elf/lib\libc.a(lib_a-printf.o)
 .debug_pubnames
                0x000009b7       0x27 d:/altera/13.0sp1/nios2eds/bin/gnu/h-i686-mingw32/bin/../lib/gcc/nios2-elf/4.1.2/../../../../nios2-elf/lib\libc.a(lib_a-putc.o)
 .debug_pubnames
                0x000009de       0x2d d:/altera/13.0sp1/nios2eds/bin/gnu/h-i686-mingw32/bin/../lib/gcc/nios2-elf/4.1.2/../../../../nios2-elf/lib\libc.a(lib_a-putchar.o)
 .debug_pubnames
                0x00000a0b       0x27 d:/altera/13.0sp1/nios2eds/bin/gnu/h-i686-mingw32/bin/../lib/gcc/nios2-elf/4.1.2/../../../../nios2-elf/lib\libc.a(lib_a-puts.o)
 .debug_pubnames
                0x00000a32       0x2c d:/altera/13.0sp1/nios2eds/bin/gnu/h-i686-mingw32/bin/../lib/gcc/nios2-elf/4.1.2/../../../../nios2-elf/lib\libc.a(lib_a-rget.o)
 .debug_pubnames
                0x00000a5e       0x1e d:/altera/13.0sp1/nios2eds/bin/gnu/h-i686-mingw32/bin/../lib/gcc/nios2-elf/4.1.2/../../../../nios2-elf/lib\libc.a(lib_a-sbrkr.o)
 .debug_pubnames
                0x00000a7c       0x1d d:/altera/13.0sp1/nios2eds/bin/gnu/h-i686-mingw32/bin/../lib/gcc/nios2-elf/4.1.2/../../../../nios2-elf/lib\libc.a(lib_a-strchr.o)
 .debug_pubnames
                0x00000a99       0x1f d:/altera/13.0sp1/nios2eds/bin/gnu/h-i686-mingw32/bin/../lib/gcc/nios2-elf/4.1.2/../../../../nios2-elf/lib\libc.a(lib_a-strerror.o)
 .debug_pubnames
                0x00000ab8       0x1d d:/altera/13.0sp1/nios2eds/bin/gnu/h-i686-mingw32/bin/../lib/gcc/nios2-elf/4.1.2/../../../../nios2-elf/lib\libc.a(lib_a-strlen.o)
 .debug_pubnames
                0x00000ad5       0x25 d:/altera/13.0sp1/nios2eds/bin/gnu/h-i686-mingw32/bin/../lib/gcc/nios2-elf/4.1.2/../../../../nios2-elf/lib\libc.a(lib_a-u_strerr.o)
 .debug_pubnames
                0x00000afa       0x45 d:/altera/13.0sp1/nios2eds/bin/gnu/h-i686-mingw32/bin/../lib/gcc/nios2-elf/4.1.2/../../../../nios2-elf/lib\libc.a(lib_a-vfprintf.o)
 .debug_pubnames
                0x00000b3f       0x2c d:/altera/13.0sp1/nios2eds/bin/gnu/h-i686-mingw32/bin/../lib/gcc/nios2-elf/4.1.2/../../../../nios2-elf/lib\libc.a(lib_a-wbuf.o)
 .debug_pubnames
                0x00000b6b       0x22 d:/altera/13.0sp1/nios2eds/bin/gnu/h-i686-mingw32/bin/../lib/gcc/nios2-elf/4.1.2/../../../../nios2-elf/lib\libc.a(lib_a-wsetup.o)
 .debug_pubnames
                0x00000b8d       0x27 d:/altera/13.0sp1/nios2eds/bin/gnu/h-i686-mingw32/bin/../lib/gcc/nios2-elf/4.1.2/../../../../nios2-elf/lib\libc.a(lib_a-__call_atexit.o)
 .debug_pubnames
                0x00000bb4       0x1e d:/altera/13.0sp1/nios2eds/bin/gnu/h-i686-mingw32/bin/../lib/gcc/nios2-elf/4.1.2/../../../../nios2-elf/lib\libc.a(lib_a-dtoa.o)
 .debug_pubnames
                0x00000bd2       0x2b d:/altera/13.0sp1/nios2eds/bin/gnu/h-i686-mingw32/bin/../lib/gcc/nios2-elf/4.1.2/../../../../nios2-elf/lib\libc.a(lib_a-fflush.o)
 .debug_pubnames
                0x00000bfd       0xdb d:/altera/13.0sp1/nios2eds/bin/gnu/h-i686-mingw32/bin/../lib/gcc/nios2-elf/4.1.2/../../../../nios2-elf/lib\libc.a(lib_a-findfp.o)
 .debug_pubnames
                0x00000cd8       0x29 d:/altera/13.0sp1/nios2eds/bin/gnu/h-i686-mingw32/bin/../lib/gcc/nios2-elf/4.1.2/../../../../nios2-elf/lib\libc.a(lib_a-fputc.o)
 .debug_pubnames
                0x00000d01       0x29 d:/altera/13.0sp1/nios2eds/bin/gnu/h-i686-mingw32/bin/../lib/gcc/nios2-elf/4.1.2/../../../../nios2-elf/lib\libc.a(lib_a-fputs.o)
 .debug_pubnames
                0x00000d2a       0x31 d:/altera/13.0sp1/nios2eds/bin/gnu/h-i686-mingw32/bin/../lib/gcc/nios2-elf/4.1.2/../../../../nios2-elf/lib\libc.a(lib_a-freer.o)
 .debug_pubnames
                0x00000d5b       0x23 d:/altera/13.0sp1/nios2eds/bin/gnu/h-i686-mingw32/bin/../lib/gcc/nios2-elf/4.1.2/../../../../nios2-elf/lib\libc.a(lib_a-fvwrite.o)
 .debug_pubnames
                0x00000d7e       0x2e d:/altera/13.0sp1/nios2eds/bin/gnu/h-i686-mingw32/bin/../lib/gcc/nios2-elf/4.1.2/../../../../nios2-elf/lib\libc.a(lib_a-fwalk.o)
 .debug_pubnames
                0x00000dac       0x1c d:/altera/13.0sp1/nios2eds/bin/gnu/h-i686-mingw32/bin/../lib/gcc/nios2-elf/4.1.2/../../../../nios2-elf/lib\libc.a(lib_a-int_errno.o)
 .debug_pubnames
                0x00000dc8       0xc3 d:/altera/13.0sp1/nios2eds/bin/gnu/h-i686-mingw32/bin/../lib/gcc/nios2-elf/4.1.2/../../../../nios2-elf/lib\libc.a(lib_a-locale.o)
 .debug_pubnames
                0x00000e8b       0x23 d:/altera/13.0sp1/nios2eds/bin/gnu/h-i686-mingw32/bin/../lib/gcc/nios2-elf/4.1.2/../../../../nios2-elf/lib\libc.a(lib_a-makebuf.o)
 .debug_pubnames
                0x00000eae       0x1d d:/altera/13.0sp1/nios2eds/bin/gnu/h-i686-mingw32/bin/../lib/gcc/nios2-elf/4.1.2/../../../../nios2-elf/lib\libc.a(lib_a-memchr.o)
 .debug_pubnames
                0x00000ecb      0x13a d:/altera/13.0sp1/nios2eds/bin/gnu/h-i686-mingw32/bin/../lib/gcc/nios2-elf/4.1.2/../../../../nios2-elf/lib\libc.a(lib_a-mprec.o)
 .debug_pubnames
                0x00001005       0x21 d:/altera/13.0sp1/nios2eds/bin/gnu/h-i686-mingw32/bin/../lib/gcc/nios2-elf/4.1.2/../../../../nios2-elf/lib\libc.a(lib_a-reallocr.o)
 .debug_pubnames
                0x00001026       0x22 d:/altera/13.0sp1/nios2eds/bin/gnu/h-i686-mingw32/bin/../lib/gcc/nios2-elf/4.1.2/../../../../nios2-elf/lib\libc.a(lib_a-refill.o)
 .debug_pubnames
                0x00001048       0x1f d:/altera/13.0sp1/nios2eds/bin/gnu/h-i686-mingw32/bin/../lib/gcc/nios2-elf/4.1.2/../../../../nios2-elf/lib\libc.a(lib_a-s_isinfd.o)
 .debug_pubnames
                0x00001067       0x1f d:/altera/13.0sp1/nios2eds/bin/gnu/h-i686-mingw32/bin/../lib/gcc/nios2-elf/4.1.2/../../../../nios2-elf/lib\libc.a(lib_a-s_isnand.o)
 .debug_pubnames
                0x00001086       0x44 d:/altera/13.0sp1/nios2eds/bin/gnu/h-i686-mingw32/bin/../lib/gcc/nios2-elf/4.1.2/../../../../nios2-elf/lib\libc.a(lib_a-stdio.o)
 .debug_pubnames
                0x000010ca       0x1d d:/altera/13.0sp1/nios2eds/bin/gnu/h-i686-mingw32/bin/../lib/gcc/nios2-elf/4.1.2/../../../../nios2-elf/lib\libc.a(lib_a-strcmp.o)
 .debug_pubnames
                0x000010e7       0x1f d:/altera/13.0sp1/nios2eds/bin/gnu/h-i686-mingw32/bin/../lib/gcc/nios2-elf/4.1.2/../../../../nios2-elf/lib\libc.a(lib_a-writer.o)
 .debug_pubnames
                0x00001106       0x20 d:/altera/13.0sp1/nios2eds/bin/gnu/h-i686-mingw32/bin/../lib/gcc/nios2-elf/4.1.2/../../../../nios2-elf/lib\libc.a(lib_a-callocr.o)
 .debug_pubnames
                0x00001126       0x1f d:/altera/13.0sp1/nios2eds/bin/gnu/h-i686-mingw32/bin/../lib/gcc/nios2-elf/4.1.2/../../../../nios2-elf/lib\libc.a(lib_a-closer.o)
 .debug_pubnames
                0x00001145       0x2b d:/altera/13.0sp1/nios2eds/bin/gnu/h-i686-mingw32/bin/../lib/gcc/nios2-elf/4.1.2/../../../../nios2-elf/lib\libc.a(lib_a-fclose.o)
 .debug_pubnames
                0x00001170       0x1f d:/altera/13.0sp1/nios2eds/bin/gnu/h-i686-mingw32/bin/../lib/gcc/nios2-elf/4.1.2/../../../../nios2-elf/lib\libc.a(lib_a-fstatr.o)
 .debug_pubnames
                0x0000118f       0x20 d:/altera/13.0sp1/nios2eds/bin/gnu/h-i686-mingw32/bin/../lib/gcc/nios2-elf/4.1.2/../../../../nios2-elf/lib\libc.a(lib_a-isattyr.o)
 .debug_pubnames
                0x000011af       0x1f d:/altera/13.0sp1/nios2eds/bin/gnu/h-i686-mingw32/bin/../lib/gcc/nios2-elf/4.1.2/../../../../nios2-elf/lib\libc.a(lib_a-lseekr.o)
 .debug_pubnames
                0x000011ce       0x1e d:/altera/13.0sp1/nios2eds/bin/gnu/h-i686-mingw32/bin/../lib/gcc/nios2-elf/4.1.2/../../../../nios2-elf/lib\libc.a(lib_a-readr.o)
 .debug_pubnames
                0x000011ec       0x20 d:/altera/13.0sp1/nios2eds/bin/gnu/h-i686-mingw32/bin/../lib/gcc/nios2-elf/4.1.2\libgcc.a(_udivdi3.o)
 .debug_pubnames
                0x0000120c       0x20 d:/altera/13.0sp1/nios2eds/bin/gnu/h-i686-mingw32/bin/../lib/gcc/nios2-elf/4.1.2\libgcc.a(_umoddi3.o)
 .debug_pubnames
                0x0000122c       0x1f d:/altera/13.0sp1/nios2eds/bin/gnu/h-i686-mingw32/bin/../lib/gcc/nios2-elf/4.1.2\libgcc.a(_div_df.o)
 .debug_pubnames
                0x0000124b       0x1e d:/altera/13.0sp1/nios2eds/bin/gnu/h-i686-mingw32/bin/../lib/gcc/nios2-elf/4.1.2\libgcc.a(_eq_df.o)
 .debug_pubnames
                0x00001269       0x1e d:/altera/13.0sp1/nios2eds/bin/gnu/h-i686-mingw32/bin/../lib/gcc/nios2-elf/4.1.2\libgcc.a(_ne_df.o)
 .debug_pubnames
                0x00001287       0x1e d:/altera/13.0sp1/nios2eds/bin/gnu/h-i686-mingw32/bin/../lib/gcc/nios2-elf/4.1.2\libgcc.a(_gt_df.o)
 .debug_pubnames
                0x000012a5       0x1e d:/altera/13.0sp1/nios2eds/bin/gnu/h-i686-mingw32/bin/../lib/gcc/nios2-elf/4.1.2\libgcc.a(_lt_df.o)
 .debug_pubnames
                0x000012c3       0x22 d:/altera/13.0sp1/nios2eds/bin/gnu/h-i686-mingw32/bin/../lib/gcc/nios2-elf/4.1.2\libgcc.a(_si_to_df.o)
 .debug_pubnames
                0x000012e5       0x48 d:/altera/13.0sp1/nios2eds/bin/gnu/h-i686-mingw32/bin/../lib/gcc/nios2-elf/4.1.2\libgcc.a(lib2-divmod.o)
 .debug_pubnames
                0x0000132d       0x1c ../fir_bsp/\libucosii_bsp.a(alt_exit.o)
 .debug_pubnames
                0x00001349       0x58 ../fir_bsp/\libucosii_bsp.a(alt_flash_dev.o)
 .debug_pubnames
                0x000013a1       0x1c ../fir_bsp/\libucosii_bsp.a(alt_fstat.o)
 .debug_pubnames
                0x000013bd       0x27 ../fir_bsp/\libucosii_bsp.a(alt_irq_register.o)
 .debug_pubnames
                0x000013e4       0x3b ../fir_bsp/\libucosii_bsp.a(alt_irq_vars.o)
 .debug_pubnames
                0x0000141f       0x1d ../fir_bsp/\libucosii_bsp.a(alt_isatty.o)
 .debug_pubnames
                0x0000143c       0x1c ../fir_bsp/\libucosii_bsp.a(alt_lseek.o)
 .debug_pubnames
                0x00001458       0x46 ../fir_bsp/\libucosii_bsp.a(alt_main.o)
 .debug_pubnames
                0x0000149e       0x1b ../fir_bsp/\libucosii_bsp.a(alt_sbrk.o)
 .debug_pubnames
                0x000014b9       0x1d ../fir_bsp/\libucosii_bsp.a(alt_usleep.o)
 .debug_pubnames
                0x000014d6       0x41 ../fir_bsp/\libucosii_bsp.a(alt_env_lock.o)
 .debug_pubnames
                0x00001517       0x48 ../fir_bsp/\libucosii_bsp.a(alt_malloc_lock.o)
 .debug_pubnames
                0x0000155f      0x3f8 ../fir_bsp/\libucosii_bsp.a(os_core.o)
 .debug_pubnames
                0x00001957      0x3c5 ../fir_bsp/\libucosii_bsp.a(os_dbg.o)
 .debug_pubnames
                0x00001d1c       0xd0 ../fir_bsp/\libucosii_bsp.a(os_flag.o)
 .debug_pubnames
                0x00001dec       0x7c ../fir_bsp/\libucosii_bsp.a(os_mem.o)
 .debug_pubnames
                0x00001e68       0xa9 ../fir_bsp/\libucosii_bsp.a(os_q.o)
 .debug_pubnames
                0x00001f11       0x8a ../fir_bsp/\libucosii_bsp.a(os_sem.o)
 .debug_pubnames
                0x00001f9b       0xe5 ../fir_bsp/\libucosii_bsp.a(os_task.o)
 .debug_pubnames
                0x00002080       0x62 ../fir_bsp/\libucosii_bsp.a(os_time.o)
 .debug_pubnames
                0x000020e2       0x34 ../fir_bsp/\libucosii_bsp.a(alt_sys_init.o)
 .debug_pubnames
                0x00002116       0xac ../fir_bsp/\libucosii_bsp.a(altera_avalon_cfi_flash.o)
 .debug_pubnames
                0x000021c2      0x27a ../fir_bsp/\libucosii_bsp.a(altera_avalon_cfi_flash_table.o)
 .debug_pubnames
                0x0000243c       0xb5 ../fir_bsp/\libucosii_bsp.a(altera_avalon_epcs_flash_controller.o)
 .debug_pubnames
                0x000024f1       0xa5 ../fir_bsp/\libucosii_bsp.a(altera_avalon_jtag_uart_fd.o)
 .debug_pubnames
                0x00002596       0x55 ../fir_bsp/\libucosii_bsp.a(altera_avalon_jtag_uart_init.o)
 .debug_pubnames
                0x000025eb       0x34 ../fir_bsp/\libucosii_bsp.a(altera_avalon_jtag_uart_ioctl.o)
 .debug_pubnames
                0x0000261f       0x33 ../fir_bsp/\libucosii_bsp.a(altera_avalon_jtag_uart_read.o)
 .debug_pubnames
                0x00002652       0x34 ../fir_bsp/\libucosii_bsp.a(altera_avalon_jtag_uart_write.o)
 .debug_pubnames
                0x00002686       0x55 ../fir_bsp/\libucosii_bsp.a(altera_avalon_lcd_16207.o)
 .debug_pubnames
                0x000026db       0x37 ../fir_bsp/\libucosii_bsp.a(altera_avalon_lcd_16207_fd.o)
 .debug_pubnames
                0x00002712       0x2f ../fir_bsp/\libucosii_bsp.a(altera_avalon_timer_sc.o)
 .debug_pubnames
                0x00002741       0x71 ../fir_bsp/\libucosii_bsp.a(altera_avalon_uart_fd.o)
 .debug_pubnames
                0x000027b2       0x4b ../fir_bsp/\libucosii_bsp.a(altera_avalon_uart_init.o)
 .debug_pubnames
                0x000027fd       0x2e ../fir_bsp/\libucosii_bsp.a(altera_avalon_uart_read.o)
 .debug_pubnames
                0x0000282b       0x2f ../fir_bsp/\libucosii_bsp.a(altera_avalon_uart_write.o)
 .debug_pubnames
                0x0000285a      0x118 ../fir_bsp/\libucosii_bsp.a(epcs_commands.o)
 .debug_pubnames
                0x00002972       0x1c ../fir_bsp/\libucosii_bsp.a(alt_iniche_close.o)
 .debug_pubnames
                0x0000298e       0x42 ../fir_bsp/\libucosii_bsp.a(alt_iniche_dev.o)
 .debug_pubnames
                0x000029d0       0x1b ../fir_bsp/\libucosii_bsp.a(alt_iniche_read.o)
 .debug_pubnames
                0x000029eb       0x1c ../fir_bsp/\libucosii_bsp.a(alt_iniche_write.o)
 .debug_pubnames
                0x00002a07       0x90 ../fir_bsp/\libucosii_bsp.a(ipnet.o)
 .debug_pubnames
                0x00002a97       0x81 ../fir_bsp/\libucosii_bsp.a(ipstart.o)
 .debug_pubnames
                0x00002b18      0x108 ../fir_bsp/\libucosii_bsp.a(igmp_cmn.o)
 .debug_pubnames
                0x00002c20       0xc4 ../fir_bsp/\libucosii_bsp.a(bsdsock.o)
 .debug_pubnames
                0x00002ce4       0x27 ../fir_bsp/\libucosii_bsp.a(cksum.o)
 .debug_pubnames
                0x00002d0b       0xcc ../fir_bsp/\libucosii_bsp.a(in_utils.o)
 .debug_pubnames
                0x00002dd7       0xa6 ../fir_bsp/\libucosii_bsp.a(parseip.o)
 .debug_pubnames
                0x00002e7d       0x97 ../fir_bsp/\libucosii_bsp.a(tk_crnos.o)
 .debug_pubnames
                0x00002f14       0xe2 ../fir_bsp/\libucosii_bsp.a(pktalloc.o)
 .debug_pubnames
                0x00002ff6       0x2d ../fir_bsp/\libucosii_bsp.a(q.o)
 .debug_pubnames
                0x00003023       0xc5 ../fir_bsp/\libucosii_bsp.a(brdutils.o)
 .debug_pubnames
                0x000030e8      0x10c ../fir_bsp/\libucosii_bsp.a(osportco.o)
 .debug_pubnames
                0x000031f4       0xf5 ../fir_bsp/\libucosii_bsp.a(targnios.o)
 .debug_pubnames
                0x000032e9      0x190 ../fir_bsp/\libucosii_bsp.a(nptcp.o)
 .debug_pubnames
                0x00003479       0x46 ../fir_bsp/\libucosii_bsp.a(rawsock.o)
 .debug_pubnames
                0x000034bf      0x108 ../fir_bsp/\libucosii_bsp.a(sockcall.o)
 .debug_pubnames
                0x000035c7       0xfc ../fir_bsp/\libucosii_bsp.a(socket.o)
 .debug_pubnames
                0x000036c3      0x178 ../fir_bsp/\libucosii_bsp.a(socket2.o)
 .debug_pubnames
                0x0000383b       0x92 ../fir_bsp/\libucosii_bsp.a(soselect.o)
 .debug_pubnames
                0x000038cd       0xc2 ../fir_bsp/\libucosii_bsp.a(tcp_in.o)
 .debug_pubnames
                0x0000398f       0x57 ../fir_bsp/\libucosii_bsp.a(tcp_out.o)
 .debug_pubnames
                0x000039e6       0xb9 ../fir_bsp/\libucosii_bsp.a(tcp_subr.o)
 .debug_pubnames
                0x00003a9f       0x96 ../fir_bsp/\libucosii_bsp.a(tcp_timr.o)
 .debug_pubnames
                0x00003b35       0x79 ../fir_bsp/\libucosii_bsp.a(tcp_usr.o)
 .debug_pubnames
                0x00003bae       0x1e ../fir_bsp/\libucosii_bsp.a(tcpport.o)
 .debug_pubnames
                0x00003bcc       0x76 ../fir_bsp/\libucosii_bsp.a(udpsock.o)
 .debug_pubnames
                0x00003c42       0x26 ../fir_bsp/\libucosii_bsp.a(alt_alarm_start.o)
 .debug_pubnames
                0x00003c68       0x25 ../fir_bsp/\libucosii_bsp.a(alt_busy_sleep.o)
 .debug_pubnames
                0x00003c8d       0x20 ../fir_bsp/\libucosii_bsp.a(alt_close.o)
 .debug_pubnames
                0x00003cad       0x27 ../fir_bsp/\libucosii_bsp.a(alt_dcache_flush.o)
 .debug_pubnames
                0x00003cd4       0x78 ../fir_bsp/\libucosii_bsp.a(alt_dev.o)
 .debug_pubnames
                0x00003d4c       0x2b ../fir_bsp/\libucosii_bsp.a(alt_dev_llist_insert.o)
 .debug_pubnames
                0x00003d77       0x20 ../fir_bsp/\libucosii_bsp.a(alt_do_ctors.o)
 .debug_pubnames
                0x00003d97       0x20 ../fir_bsp/\libucosii_bsp.a(alt_do_dtors.o)
 .debug_pubnames
                0x00003db7       0x20 ../fir_bsp/\libucosii_bsp.a(alt_errno.o)
 .debug_pubnames
                0x00003dd7       0x23 ../fir_bsp/\libucosii_bsp.a(alt_find_dev.o)
 .debug_pubnames
                0x00003dfa       0x6e ../fir_bsp/\libucosii_bsp.a(alt_iic.o)
 .debug_pubnames
                0x00003e68       0x2b ../fir_bsp/\libucosii_bsp.a(alt_iic_isr_register.o)
 .debug_pubnames
                0x00003e93       0x26 ../fir_bsp/\libucosii_bsp.a(alt_io_redirect.o)
 .debug_pubnames
                0x00003eb9       0x32 ../fir_bsp/\libucosii_bsp.a(alt_irq_handler.o)
 .debug_pubnames
                0x00003eeb       0x1b ../fir_bsp/\libucosii_bsp.a(alt_open.o)
 .debug_pubnames
                0x00003f06       0x1f ../fir_bsp/\libucosii_bsp.a(alt_read.o)
 .debug_pubnames
                0x00003f25       0x25 ../fir_bsp/\libucosii_bsp.a(alt_release_fd.o)
 .debug_pubnames
                0x00003f4a       0x27 ../fir_bsp/\libucosii_bsp.a(alt_remap_cached.o)
 .debug_pubnames
                0x00003f71       0x29 ../fir_bsp/\libucosii_bsp.a(alt_remap_uncached.o)
 .debug_pubnames
                0x00003f9a       0x68 ../fir_bsp/\libucosii_bsp.a(alt_tick.o)
 .debug_pubnames
                0x00004002       0x20 ../fir_bsp/\libucosii_bsp.a(alt_write.o)
 .debug_pubnames
                0x00004022       0x31 ../fir_bsp/\libucosii_bsp.a(altera_nios2_qsys_irq.o)
 .debug_pubnames
                0x00004053       0xcd ../fir_bsp/\libucosii_bsp.a(os_cpu_c.o)
 .debug_pubnames
                0x00004120       0x3e ../fir_bsp/\libucosii_bsp.a(altera_avalon_cfi_flash_amd.o)
 .debug_pubnames
                0x0000415e       0x42 ../fir_bsp/\libucosii_bsp.a(altera_avalon_cfi_flash_intel.o)
 .debug_pubnames
                0x000041a0       0x2d ../fir_bsp/\libucosii_bsp.a(altera_avalon_spi.o)
 .debug_pubnames
                0x000041cd       0xd4 ../fir_bsp/\libucosii_bsp.a(allports.o)
 .debug_pubnames
                0x000042a1       0x35 ../fir_bsp/\libucosii_bsp.a(tk_misc.o)
 .debug_pubnames
                0x000042d6       0x1c ../fir_bsp/\libucosii_bsp.a(alt_iniche_fcntl.o)
 .debug_pubnames
                0x000042f2      0x134 ../fir_bsp/\libucosii_bsp.a(et_arp.o)
 .debug_pubnames
                0x00004426       0x58 ../fir_bsp/\libucosii_bsp.a(iface.o)
 .debug_pubnames
                0x0000447e       0xea ../fir_bsp/\libucosii_bsp.a(ip.o)
 .debug_pubnames
                0x00004568       0x3c ../fir_bsp/\libucosii_bsp.a(ipdemux.o)
 .debug_pubnames
                0x000045a4       0x43 ../fir_bsp/\libucosii_bsp.a(ipmc.o)
 .debug_pubnames
                0x000045e7       0x99 ../fir_bsp/\libucosii_bsp.a(ipport.o)
 .debug_pubnames
                0x00004680       0x87 ../fir_bsp/\libucosii_bsp.a(ipraw.o)
 .debug_pubnames
                0x00004707       0x5d ../fir_bsp/\libucosii_bsp.a(iproute.o)
 .debug_pubnames
                0x00004764       0x7f ../fir_bsp/\libucosii_bsp.a(udp.o)
 .debug_pubnames
                0x000047e3       0x23 ../fir_bsp/\libucosii_bsp.a(igmp.o)
 .debug_pubnames
                0x00004806       0x8d ../fir_bsp/\libucosii_bsp.a(igmp2.o)
 .debug_pubnames
                0x00004893       0x5f ../fir_bsp/\libucosii_bsp.a(ipopt.o)
 .debug_pubnames
                0x000048f2       0x35 ../fir_bsp/\libucosii_bsp.a(u_mctest.o)
 .debug_pubnames
                0x00004927       0x33 ../fir_bsp/\libucosii_bsp.a(dhcsetup.o)
 .debug_pubnames
                0x0000495a       0xb1 ../fir_bsp/\libucosii_bsp.a(memdev.o)
 .debug_pubnames
                0x00004a0b       0xb2 ../fir_bsp/\libucosii_bsp.a(netmain.o)
 .debug_pubnames
                0x00004abd       0x20 ../fir_bsp/\libucosii_bsp.a(tcpcksum.o)
 .debug_pubnames
                0x00004add      0x252 ../fir_bsp/\libucosii_bsp.a(dhcpclnt.o)
 .debug_pubnames
                0x00004d2f       0x1f ../fir_bsp/\libucosii_bsp.a(dhcputil.o)
 .debug_pubnames
                0x00004d4e       0x3a ../fir_bsp/\libucosii_bsp.a(udp_open.o)
 .debug_pubnames
                0x00004d88       0xc8 ../fir_bsp/\libucosii_bsp.a(in_pcb.o)
 .debug_pubnames
                0x00004e50      0x278 ../fir_bsp/\libucosii_bsp.a(vfsfiles.o)
 .debug_pubnames
                0x000050c8       0x1f ../fir_bsp/\libucosii_bsp.a(vfsport.o)
 .debug_pubnames
                0x000050e7       0x20 ../fir_bsp/\libucosii_bsp.a(alt_fcntl.o)
 .debug_pubnames
                0x00005107       0x24 ../fir_bsp/\libucosii_bsp.a(alt_find_file.o)
 .debug_pubnames
                0x0000512b       0x21 ../fir_bsp/\libucosii_bsp.a(alt_get_fd.o)
 .debug_pubnames
                0x0000514c       0x6f ../fir_bsp/\libucosii_bsp.a(timeouts.o)
 .debug_pubnames
                0x000051bb       0x66 ../fir_bsp/\libucosii_bsp.a(icmp.o)
 .debug_pubnames
                0x00005221      0x22e ../fir_bsp/\libucosii_bsp.a(ip_reasm.o)
 .debug_pubnames
                0x0000544f       0x2a d:/altera/13.0sp1/nios2eds/bin/gnu/h-i686-mingw32/bin/../lib/gcc/nios2-elf/4.1.2/../../../../nios2-elf/lib\libc.a(lib_a-atexit.o)
 .debug_pubnames
                0x00005479       0x27 d:/altera/13.0sp1/nios2eds/bin/gnu/h-i686-mingw32/bin/../lib/gcc/nios2-elf/4.1.2/../../../../nios2-elf/lib\libc.a(lib_a-atoi.o)
 .debug_pubnames
                0x000054a0       0x1d d:/altera/13.0sp1/nios2eds/bin/gnu/h-i686-mingw32/bin/../lib/gcc/nios2-elf/4.1.2/../../../../nios2-elf/lib\libc.a(lib_a-calloc.o)
 .debug_pubnames
                0x000054bd       0x1d d:/altera/13.0sp1/nios2eds/bin/gnu/h-i686-mingw32/bin/../lib/gcc/nios2-elf/4.1.2/../../../../nios2-elf/lib\libc.a(lib_a-memcmp.o)
 .debug_pubnames
                0x000054da       0x2d d:/altera/13.0sp1/nios2eds/bin/gnu/h-i686-mingw32/bin/../lib/gcc/nios2-elf/4.1.2/../../../../nios2-elf/lib\libc.a(lib_a-sprintf.o)
 .debug_pubnames
                0x00005507       0x1d d:/altera/13.0sp1/nios2eds/bin/gnu/h-i686-mingw32/bin/../lib/gcc/nios2-elf/4.1.2/../../../../nios2-elf/lib\libc.a(lib_a-strcpy.o)
 .debug_pubnames
                0x00005524       0x1e d:/altera/13.0sp1/nios2eds/bin/gnu/h-i686-mingw32/bin/../lib/gcc/nios2-elf/4.1.2/../../../../nios2-elf/lib\libc.a(lib_a-strncmp.o)
 .debug_pubnames
                0x00005542       0x1e d:/altera/13.0sp1/nios2eds/bin/gnu/h-i686-mingw32/bin/../lib/gcc/nios2-elf/4.1.2/../../../../nios2-elf/lib\libc.a(lib_a-strncpy.o)
 .debug_pubnames
                0x00005560       0x2b d:/altera/13.0sp1/nios2eds/bin/gnu/h-i686-mingw32/bin/../lib/gcc/nios2-elf/4.1.2/../../../../nios2-elf/lib\libc.a(lib_a-strtol.o)
 .debug_pubnames
                0x0000558b       0x2d d:/altera/13.0sp1/nios2eds/bin/gnu/h-i686-mingw32/bin/../lib/gcc/nios2-elf/4.1.2/../../../../nios2-elf/lib\libc.a(lib_a-vprintf.o)
 .debug_pubnames
                0x000055b8       0x2f d:/altera/13.0sp1/nios2eds/bin/gnu/h-i686-mingw32/bin/../lib/gcc/nios2-elf/4.1.2/../../../../nios2-elf/lib\libc.a(lib_a-vsprintf.o)
 .debug_pubnames
                0x000055e7       0x2a d:/altera/13.0sp1/nios2eds/bin/gnu/h-i686-mingw32/bin/../lib/gcc/nios2-elf/4.1.2/../../../../nios2-elf/lib\libc.a(lib_a-__atexit.o)

.debug_info     0x00000000    0x7c6d9
 *(.debug_info .gnu.linkonce.wi.*)
 .debug_info    0x00000000       0x59 ../fir_bsp//obj/HAL/src/crt0.o
 .debug_info    0x00000059      0x20a obj/default/LCD.o
 .debug_info    0x00000263      0x703 obj/default/SSS_DE2_115.o
 .debug_info    0x00000966      0xd4a obj/default/alt_error_handler.o
 .debug_info    0x000016b0     0x1237 obj/default/dm9000a.o
 .debug_info    0x000028e7      0xff8 obj/default/iniche_init.o
 .debug_info    0x000038df      0x450 obj/default/led.o
 .debug_info    0x00003d2f     0x1b77 obj/default/network_utilities.o
 .debug_info    0x000058a6      0x9ae obj/default/simple_socket_server.o
 .debug_info    0x00006254        0x0 obj/default/tse_my_system.o
 .debug_info    0x00006254       0xce d:/altera/13.0sp1/nios2eds/bin/gnu/h-i686-mingw32/bin/../lib/gcc/nios2-elf/4.1.2\libgcc.a(_fixunsdfsi.o)
 .debug_info    0x00006322      0x493 d:/altera/13.0sp1/nios2eds/bin/gnu/h-i686-mingw32/bin/../lib/gcc/nios2-elf/4.1.2\libgcc.a(_addsub_df.o)
 .debug_info    0x000067b5      0x488 d:/altera/13.0sp1/nios2eds/bin/gnu/h-i686-mingw32/bin/../lib/gcc/nios2-elf/4.1.2\libgcc.a(_mul_df.o)
 .debug_info    0x00006c3d      0x29d d:/altera/13.0sp1/nios2eds/bin/gnu/h-i686-mingw32/bin/../lib/gcc/nios2-elf/4.1.2\libgcc.a(_ge_df.o)
 .debug_info    0x00006eda      0x2cd d:/altera/13.0sp1/nios2eds/bin/gnu/h-i686-mingw32/bin/../lib/gcc/nios2-elf/4.1.2\libgcc.a(_df_to_si.o)
 .debug_info    0x000071a7      0x164 d:/altera/13.0sp1/nios2eds/bin/gnu/h-i686-mingw32/bin/../lib/gcc/nios2-elf/4.1.2\libgcc.a(_thenan_df.o)
 .debug_info    0x0000730b      0x213 d:/altera/13.0sp1/nios2eds/bin/gnu/h-i686-mingw32/bin/../lib/gcc/nios2-elf/4.1.2\libgcc.a(_usi_to_df.o)
 .debug_info    0x0000751e      0x215 d:/altera/13.0sp1/nios2eds/bin/gnu/h-i686-mingw32/bin/../lib/gcc/nios2-elf/4.1.2\libgcc.a(_muldi3.o)
 .debug_info    0x00007733      0x130 d:/altera/13.0sp1/nios2eds/bin/gnu/h-i686-mingw32/bin/../lib/gcc/nios2-elf/4.1.2\libgcc.a(_clzsi2.o)
 .debug_info    0x00007863      0x2fc d:/altera/13.0sp1/nios2eds/bin/gnu/h-i686-mingw32/bin/../lib/gcc/nios2-elf/4.1.2\libgcc.a(_pack_df.o)
 .debug_info    0x00007b5f      0x268 d:/altera/13.0sp1/nios2eds/bin/gnu/h-i686-mingw32/bin/../lib/gcc/nios2-elf/4.1.2\libgcc.a(_unpack_df.o)
 .debug_info    0x00007dc7      0x21b d:/altera/13.0sp1/nios2eds/bin/gnu/h-i686-mingw32/bin/../lib/gcc/nios2-elf/4.1.2\libgcc.a(_fpcmp_parts_df.o)
 .debug_info    0x00007fe2       0xc9 d:/altera/13.0sp1/nios2eds/bin/gnu/h-i686-mingw32/bin/../lib/gcc/nios2-elf/4.1.2\libgcc.a(_clz.o)
 .debug_info    0x000080ab       0xa0 d:/altera/13.0sp1/nios2eds/bin/gnu/h-i686-mingw32/bin/../lib/gcc/nios2-elf/4.1.2/../../../../nios2-elf/lib\libc.a(lib_a-ctype_.o)
 .debug_info    0x0000814b      0x93f d:/altera/13.0sp1/nios2eds/bin/gnu/h-i686-mingw32/bin/../lib/gcc/nios2-elf/4.1.2/../../../../nios2-elf/lib\libc.a(lib_a-exit.o)
 .debug_info    0x00008a8a      0x9e1 d:/altera/13.0sp1/nios2eds/bin/gnu/h-i686-mingw32/bin/../lib/gcc/nios2-elf/4.1.2/../../../../nios2-elf/lib\libc.a(lib_a-fprintf.o)
 .debug_info    0x0000946b      0xa83 d:/altera/13.0sp1/nios2eds/bin/gnu/h-i686-mingw32/bin/../lib/gcc/nios2-elf/4.1.2/../../../../nios2-elf/lib\libc.a(lib_a-fwrite.o)
 .debug_info    0x00009eee      0x9a7 d:/altera/13.0sp1/nios2eds/bin/gnu/h-i686-mingw32/bin/../lib/gcc/nios2-elf/4.1.2/../../../../nios2-elf/lib\libc.a(lib_a-getc.o)
 .debug_info    0x0000a895      0x93d d:/altera/13.0sp1/nios2eds/bin/gnu/h-i686-mingw32/bin/../lib/gcc/nios2-elf/4.1.2/../../../../nios2-elf/lib\libc.a(lib_a-impure.o)
 .debug_info    0x0000b1d2      0x96e d:/altera/13.0sp1/nios2eds/bin/gnu/h-i686-mingw32/bin/../lib/gcc/nios2-elf/4.1.2/../../../../nios2-elf/lib\libc.a(lib_a-malloc.o)
 .debug_info    0x0000bb40      0xcd0 d:/altera/13.0sp1/nios2eds/bin/gnu/h-i686-mingw32/bin/../lib/gcc/nios2-elf/4.1.2/../../../../nios2-elf/lib\libc.a(lib_a-mallocr.o)
 .debug_info    0x0000c810      0x106 d:/altera/13.0sp1/nios2eds/bin/gnu/h-i686-mingw32/bin/../lib/gcc/nios2-elf/4.1.2/../../../../nios2-elf/lib\libc.a(lib_a-memcpy.o)
 .debug_info    0x0000c916      0x13e d:/altera/13.0sp1/nios2eds/bin/gnu/h-i686-mingw32/bin/../lib/gcc/nios2-elf/4.1.2/../../../../nios2-elf/lib\libc.a(lib_a-memmove.o)
 .debug_info    0x0000ca54      0x113 d:/altera/13.0sp1/nios2eds/bin/gnu/h-i686-mingw32/bin/../lib/gcc/nios2-elf/4.1.2/../../../../nios2-elf/lib\libc.a(lib_a-memset.o)
 .debug_info    0x0000cb67      0x97b d:/altera/13.0sp1/nios2eds/bin/gnu/h-i686-mingw32/bin/../lib/gcc/nios2-elf/4.1.2/../../../../nios2-elf/lib\libc.a(lib_a-perror.o)
 .debug_info    0x0000d4e2      0x9d1 d:/altera/13.0sp1/nios2eds/bin/gnu/h-i686-mingw32/bin/../lib/gcc/nios2-elf/4.1.2/../../../../nios2-elf/lib\libc.a(lib_a-printf.o)
 .debug_info    0x0000deb3      0x9c1 d:/altera/13.0sp1/nios2eds/bin/gnu/h-i686-mingw32/bin/../lib/gcc/nios2-elf/4.1.2/../../../../nios2-elf/lib\libc.a(lib_a-putc.o)
 .debug_info    0x0000e874      0x972 d:/altera/13.0sp1/nios2eds/bin/gnu/h-i686-mingw32/bin/../lib/gcc/nios2-elf/4.1.2/../../../../nios2-elf/lib\libc.a(lib_a-putchar.o)
 .debug_info    0x0000f1e6      0xa25 d:/altera/13.0sp1/nios2eds/bin/gnu/h-i686-mingw32/bin/../lib/gcc/nios2-elf/4.1.2/../../../../nios2-elf/lib\libc.a(lib_a-puts.o)
 .debug_info    0x0000fc0b      0x987 d:/altera/13.0sp1/nios2eds/bin/gnu/h-i686-mingw32/bin/../lib/gcc/nios2-elf/4.1.2/../../../../nios2-elf/lib\libc.a(lib_a-rget.o)
 .debug_info    0x00010592      0x962 d:/altera/13.0sp1/nios2eds/bin/gnu/h-i686-mingw32/bin/../lib/gcc/nios2-elf/4.1.2/../../../../nios2-elf/lib\libc.a(lib_a-sbrkr.o)
 .debug_info    0x00010ef4      0x118 d:/altera/13.0sp1/nios2eds/bin/gnu/h-i686-mingw32/bin/../lib/gcc/nios2-elf/4.1.2/../../../../nios2-elf/lib\libc.a(lib_a-strchr.o)
 .debug_info    0x0001100c       0xbb d:/altera/13.0sp1/nios2eds/bin/gnu/h-i686-mingw32/bin/../lib/gcc/nios2-elf/4.1.2/../../../../nios2-elf/lib\libc.a(lib_a-strerror.o)
 .debug_info    0x000110c7       0xdb d:/altera/13.0sp1/nios2eds/bin/gnu/h-i686-mingw32/bin/../lib/gcc/nios2-elf/4.1.2/../../../../nios2-elf/lib\libc.a(lib_a-strlen.o)
 .debug_info    0x000111a2       0x63 d:/altera/13.0sp1/nios2eds/bin/gnu/h-i686-mingw32/bin/../lib/gcc/nios2-elf/4.1.2/../../../../nios2-elf/lib\libc.a(lib_a-u_strerr.o)
 .debug_info    0x00011205     0x10d5 d:/altera/13.0sp1/nios2eds/bin/gnu/h-i686-mingw32/bin/../lib/gcc/nios2-elf/4.1.2/../../../../nios2-elf/lib\libc.a(lib_a-vfprintf.o)
 .debug_info    0x000122da      0x9ae d:/altera/13.0sp1/nios2eds/bin/gnu/h-i686-mingw32/bin/../lib/gcc/nios2-elf/4.1.2/../../../../nios2-elf/lib\libc.a(lib_a-wbuf.o)
 .debug_info    0x00012c88      0x95d d:/altera/13.0sp1/nios2eds/bin/gnu/h-i686-mingw32/bin/../lib/gcc/nios2-elf/4.1.2/../../../../nios2-elf/lib\libc.a(lib_a-wsetup.o)
 .debug_info    0x000135e5      0x9e2 d:/altera/13.0sp1/nios2eds/bin/gnu/h-i686-mingw32/bin/../lib/gcc/nios2-elf/4.1.2/../../../../nios2-elf/lib\libc.a(lib_a-__call_atexit.o)
 .debug_info    0x00013fc7      0xd6f d:/altera/13.0sp1/nios2eds/bin/gnu/h-i686-mingw32/bin/../lib/gcc/nios2-elf/4.1.2/../../../../nios2-elf/lib\libc.a(lib_a-dtoa.o)
 .debug_info    0x00014d36      0x9fe d:/altera/13.0sp1/nios2eds/bin/gnu/h-i686-mingw32/bin/../lib/gcc/nios2-elf/4.1.2/../../../../nios2-elf/lib\libc.a(lib_a-fflush.o)
 .debug_info    0x00015734      0xb72 d:/altera/13.0sp1/nios2eds/bin/gnu/h-i686-mingw32/bin/../lib/gcc/nios2-elf/4.1.2/../../../../nios2-elf/lib\libc.a(lib_a-findfp.o)
 .debug_info    0x000162a6      0x9bd d:/altera/13.0sp1/nios2eds/bin/gnu/h-i686-mingw32/bin/../lib/gcc/nios2-elf/4.1.2/../../../../nios2-elf/lib\libc.a(lib_a-fputc.o)
 .debug_info    0x00016c63      0xa40 d:/altera/13.0sp1/nios2eds/bin/gnu/h-i686-mingw32/bin/../lib/gcc/nios2-elf/4.1.2/../../../../nios2-elf/lib\libc.a(lib_a-fputs.o)
 .debug_info    0x000176a3      0xbc9 d:/altera/13.0sp1/nios2eds/bin/gnu/h-i686-mingw32/bin/../lib/gcc/nios2-elf/4.1.2/../../../../nios2-elf/lib\libc.a(lib_a-freer.o)
 .debug_info    0x0001826c      0xa88 d:/altera/13.0sp1/nios2eds/bin/gnu/h-i686-mingw32/bin/../lib/gcc/nios2-elf/4.1.2/../../../../nios2-elf/lib\libc.a(lib_a-fvwrite.o)
 .debug_info    0x00018cf4      0xaed d:/altera/13.0sp1/nios2eds/bin/gnu/h-i686-mingw32/bin/../lib/gcc/nios2-elf/4.1.2/../../../../nios2-elf/lib\libc.a(lib_a-fwalk.o)
 .debug_info    0x000197e1       0x8c d:/altera/13.0sp1/nios2eds/bin/gnu/h-i686-mingw32/bin/../lib/gcc/nios2-elf/4.1.2/../../../../nios2-elf/lib\libc.a(lib_a-int_errno.o)
 .debug_info    0x0001986d      0xb97 d:/altera/13.0sp1/nios2eds/bin/gnu/h-i686-mingw32/bin/../lib/gcc/nios2-elf/4.1.2/../../../../nios2-elf/lib\libc.a(lib_a-locale.o)
 .debug_info    0x0001a404      0xb1a d:/altera/13.0sp1/nios2eds/bin/gnu/h-i686-mingw32/bin/../lib/gcc/nios2-elf/4.1.2/../../../../nios2-elf/lib\libc.a(lib_a-makebuf.o)
 .debug_info    0x0001af1e      0x138 d:/altera/13.0sp1/nios2eds/bin/gnu/h-i686-mingw32/bin/../lib/gcc/nios2-elf/4.1.2/../../../../nios2-elf/lib\libc.a(lib_a-memchr.o)
 .debug_info    0x0001b056     0x1437 d:/altera/13.0sp1/nios2eds/bin/gnu/h-i686-mingw32/bin/../lib/gcc/nios2-elf/4.1.2/../../../../nios2-elf/lib\libc.a(lib_a-mprec.o)
 .debug_info    0x0001c48d      0xbd7 d:/altera/13.0sp1/nios2eds/bin/gnu/h-i686-mingw32/bin/../lib/gcc/nios2-elf/4.1.2/../../../../nios2-elf/lib\libc.a(lib_a-reallocr.o)
 .debug_info    0x0001d064      0x98b d:/altera/13.0sp1/nios2eds/bin/gnu/h-i686-mingw32/bin/../lib/gcc/nios2-elf/4.1.2/../../../../nios2-elf/lib\libc.a(lib_a-refill.o)
 .debug_info    0x0001d9ef       0xd7 d:/altera/13.0sp1/nios2eds/bin/gnu/h-i686-mingw32/bin/../lib/gcc/nios2-elf/4.1.2/../../../../nios2-elf/lib\libc.a(lib_a-s_isinfd.o)
 .debug_info    0x0001dac6       0xd5 d:/altera/13.0sp1/nios2eds/bin/gnu/h-i686-mingw32/bin/../lib/gcc/nios2-elf/4.1.2/../../../../nios2-elf/lib\libc.a(lib_a-s_isnand.o)
 .debug_info    0x0001db9b      0xaac d:/altera/13.0sp1/nios2eds/bin/gnu/h-i686-mingw32/bin/../lib/gcc/nios2-elf/4.1.2/../../../../nios2-elf/lib\libc.a(lib_a-stdio.o)
 .debug_info    0x0001e647       0xdd d:/altera/13.0sp1/nios2eds/bin/gnu/h-i686-mingw32/bin/../lib/gcc/nios2-elf/4.1.2/../../../../nios2-elf/lib\libc.a(lib_a-strcmp.o)
 .debug_info    0x0001e724      0x993 d:/altera/13.0sp1/nios2eds/bin/gnu/h-i686-mingw32/bin/../lib/gcc/nios2-elf/4.1.2/../../../../nios2-elf/lib\libc.a(lib_a-writer.o)
 .debug_info    0x0001f0b7      0xa1b d:/altera/13.0sp1/nios2eds/bin/gnu/h-i686-mingw32/bin/../lib/gcc/nios2-elf/4.1.2/../../../../nios2-elf/lib\libc.a(lib_a-callocr.o)
 .debug_info    0x0001fad2      0x958 d:/altera/13.0sp1/nios2eds/bin/gnu/h-i686-mingw32/bin/../lib/gcc/nios2-elf/4.1.2/../../../../nios2-elf/lib\libc.a(lib_a-closer.o)
 .debug_info    0x0002042a      0x994 d:/altera/13.0sp1/nios2eds/bin/gnu/h-i686-mingw32/bin/../lib/gcc/nios2-elf/4.1.2/../../../../nios2-elf/lib\libc.a(lib_a-fclose.o)
 .debug_info    0x00020dbe      0xafc d:/altera/13.0sp1/nios2eds/bin/gnu/h-i686-mingw32/bin/../lib/gcc/nios2-elf/4.1.2/../../../../nios2-elf/lib\libc.a(lib_a-fstatr.o)
 .debug_info    0x000218ba      0x958 d:/altera/13.0sp1/nios2eds/bin/gnu/h-i686-mingw32/bin/../lib/gcc/nios2-elf/4.1.2/../../../../nios2-elf/lib\libc.a(lib_a-isattyr.o)
 .debug_info    0x00022212      0x981 d:/altera/13.0sp1/nios2eds/bin/gnu/h-i686-mingw32/bin/../lib/gcc/nios2-elf/4.1.2/../../../../nios2-elf/lib\libc.a(lib_a-lseekr.o)
 .debug_info    0x00022b93      0x98c d:/altera/13.0sp1/nios2eds/bin/gnu/h-i686-mingw32/bin/../lib/gcc/nios2-elf/4.1.2/../../../../nios2-elf/lib\libc.a(lib_a-readr.o)
 .debug_info    0x0002351f      0x724 d:/altera/13.0sp1/nios2eds/bin/gnu/h-i686-mingw32/bin/../lib/gcc/nios2-elf/4.1.2\libgcc.a(_udivdi3.o)
 .debug_info    0x00023c43      0x751 d:/altera/13.0sp1/nios2eds/bin/gnu/h-i686-mingw32/bin/../lib/gcc/nios2-elf/4.1.2\libgcc.a(_umoddi3.o)
 .debug_info    0x00024394      0x39b d:/altera/13.0sp1/nios2eds/bin/gnu/h-i686-mingw32/bin/../lib/gcc/nios2-elf/4.1.2\libgcc.a(_div_df.o)
 .debug_info    0x0002472f      0x29d d:/altera/13.0sp1/nios2eds/bin/gnu/h-i686-mingw32/bin/../lib/gcc/nios2-elf/4.1.2\libgcc.a(_eq_df.o)
 .debug_info    0x000249cc      0x29d d:/altera/13.0sp1/nios2eds/bin/gnu/h-i686-mingw32/bin/../lib/gcc/nios2-elf/4.1.2\libgcc.a(_ne_df.o)
 .debug_info    0x00024c69      0x29d d:/altera/13.0sp1/nios2eds/bin/gnu/h-i686-mingw32/bin/../lib/gcc/nios2-elf/4.1.2\libgcc.a(_gt_df.o)
 .debug_info    0x00024f06      0x29d d:/altera/13.0sp1/nios2eds/bin/gnu/h-i686-mingw32/bin/../lib/gcc/nios2-elf/4.1.2\libgcc.a(_lt_df.o)
 .debug_info    0x000251a3      0x218 d:/altera/13.0sp1/nios2eds/bin/gnu/h-i686-mingw32/bin/../lib/gcc/nios2-elf/4.1.2\libgcc.a(_si_to_df.o)
 .debug_info    0x000253bb      0x21c d:/altera/13.0sp1/nios2eds/bin/gnu/h-i686-mingw32/bin/../lib/gcc/nios2-elf/4.1.2\libgcc.a(lib2-divmod.o)
 .debug_info    0x000255d7      0x1e2 ../fir_bsp/\libucosii_bsp.a(alt_exit.o)
 .debug_info    0x000257b9      0x5c7 ../fir_bsp/\libucosii_bsp.a(alt_flash_dev.o)
 .debug_info    0x00025d80      0x68e ../fir_bsp/\libucosii_bsp.a(alt_fstat.o)
 .debug_info    0x0002640e      0x444 ../fir_bsp/\libucosii_bsp.a(alt_irq_register.o)
 .debug_info    0x00026852      0x141 ../fir_bsp/\libucosii_bsp.a(alt_irq_vars.o)
 .debug_info    0x00026993      0x694 ../fir_bsp/\libucosii_bsp.a(alt_isatty.o)
 .debug_info    0x00027027      0x4c8 ../fir_bsp/\libucosii_bsp.a(alt_lseek.o)
 .debug_info    0x000274ef      0x3b7 ../fir_bsp/\libucosii_bsp.a(alt_main.o)
 .debug_info    0x000278a6      0x291 ../fir_bsp/\libucosii_bsp.a(alt_sbrk.o)
 .debug_info    0x00027b37      0x20e ../fir_bsp/\libucosii_bsp.a(alt_usleep.o)
 .debug_info    0x00027d45     0x11ad ../fir_bsp/\libucosii_bsp.a(alt_env_lock.o)
 .debug_info    0x00028ef2     0x1309 ../fir_bsp/\libucosii_bsp.a(alt_malloc_lock.o)
 .debug_info    0x0002a1fb     0x1bc3 ../fir_bsp/\libucosii_bsp.a(os_core.o)
 .debug_info    0x0002bdbe     0x1108 ../fir_bsp/\libucosii_bsp.a(os_dbg.o)
 .debug_info    0x0002cec6     0x121e ../fir_bsp/\libucosii_bsp.a(os_flag.o)
 .debug_info    0x0002e0e4      0x7e8 ../fir_bsp/\libucosii_bsp.a(os_mem.o)
 .debug_info    0x0002e8cc     0x1058 ../fir_bsp/\libucosii_bsp.a(os_q.o)
 .debug_info    0x0002f924      0xcc0 ../fir_bsp/\libucosii_bsp.a(os_sem.o)
 .debug_info    0x000305e4     0x1336 ../fir_bsp/\libucosii_bsp.a(os_task.o)
 .debug_info    0x0003191a      0x9ba ../fir_bsp/\libucosii_bsp.a(os_time.o)
 .debug_info    0x000322d4     0x127a ../fir_bsp/\libucosii_bsp.a(alt_sys_init.o)
 .debug_info    0x0003354e      0xb23 ../fir_bsp/\libucosii_bsp.a(altera_avalon_cfi_flash.o)
 .debug_info    0x00034071      0xe0f ../fir_bsp/\libucosii_bsp.a(altera_avalon_cfi_flash_table.o)
 .debug_info    0x00034e80      0xb83 ../fir_bsp/\libucosii_bsp.a(altera_avalon_epcs_flash_controller.o)
 .debug_info    0x00035a03      0x9ac ../fir_bsp/\libucosii_bsp.a(altera_avalon_jtag_uart_fd.o)
 .debug_info    0x000363af      0x92a ../fir_bsp/\libucosii_bsp.a(altera_avalon_jtag_uart_init.o)
 .debug_info    0x00036cd9      0x616 ../fir_bsp/\libucosii_bsp.a(altera_avalon_jtag_uart_ioctl.o)
 .debug_info    0x000372ef      0x7d2 ../fir_bsp/\libucosii_bsp.a(altera_avalon_jtag_uart_read.o)
 .debug_info    0x00037ac1      0x7c9 ../fir_bsp/\libucosii_bsp.a(altera_avalon_jtag_uart_write.o)
 .debug_info    0x0003828a      0xa78 ../fir_bsp/\libucosii_bsp.a(altera_avalon_lcd_16207.o)
 .debug_info    0x00038d02      0x810 ../fir_bsp/\libucosii_bsp.a(altera_avalon_lcd_16207_fd.o)
 .debug_info    0x00039512      0x365 ../fir_bsp/\libucosii_bsp.a(altera_avalon_timer_sc.o)
 .debug_info    0x00039877      0x84c ../fir_bsp/\libucosii_bsp.a(altera_avalon_uart_fd.o)
 .debug_info    0x0003a0c3      0x818 ../fir_bsp/\libucosii_bsp.a(altera_avalon_uart_init.o)
 .debug_info    0x0003a8db      0x79a ../fir_bsp/\libucosii_bsp.a(altera_avalon_uart_read.o)
 .debug_info    0x0003b075      0x789 ../fir_bsp/\libucosii_bsp.a(altera_avalon_uart_write.o)
 .debug_info    0x0003b7fe      0x616 ../fir_bsp/\libucosii_bsp.a(epcs_commands.o)
 .debug_info    0x0003be14      0x190 ../fir_bsp/\libucosii_bsp.a(alt_iniche_close.o)
 .debug_info    0x0003bfa4      0xb37 ../fir_bsp/\libucosii_bsp.a(alt_iniche_dev.o)
 .debug_info    0x0003cadb      0x1ba ../fir_bsp/\libucosii_bsp.a(alt_iniche_read.o)
 .debug_info    0x0003cc95      0x1c1 ../fir_bsp/\libucosii_bsp.a(alt_iniche_write.o)
 .debug_info    0x0003ce56      0xc23 ../fir_bsp/\libucosii_bsp.a(ipnet.o)
 .debug_info    0x0003da79      0xb76 ../fir_bsp/\libucosii_bsp.a(ipstart.o)
 .debug_info    0x0003e5ef     0x150a ../fir_bsp/\libucosii_bsp.a(igmp_cmn.o)
 .debug_info    0x0003faf9     0x143a ../fir_bsp/\libucosii_bsp.a(bsdsock.o)
 .debug_info    0x00040f33      0x22c ../fir_bsp/\libucosii_bsp.a(cksum.o)
 .debug_info    0x0004115f      0x71e ../fir_bsp/\libucosii_bsp.a(in_utils.o)
 .debug_info    0x0004187d      0x6c4 ../fir_bsp/\libucosii_bsp.a(parseip.o)
 .debug_info    0x00041f41      0x945 ../fir_bsp/\libucosii_bsp.a(tk_crnos.o)
 .debug_info    0x00042886      0xc82 ../fir_bsp/\libucosii_bsp.a(pktalloc.o)
 .debug_info    0x00043508      0x2c6 ../fir_bsp/\libucosii_bsp.a(q.o)
 .debug_info    0x000437ce       0x67 ../fir_bsp/\libucosii_bsp.a(asm_cksum.o)
 .debug_info    0x00043835      0xe87 ../fir_bsp/\libucosii_bsp.a(brdutils.o)
 .debug_info    0x000446bc      0x6b9 ../fir_bsp/\libucosii_bsp.a(osportco.o)
 .debug_info    0x00044d75      0x636 ../fir_bsp/\libucosii_bsp.a(targnios.o)
 .debug_info    0x000453ab     0x24fd ../fir_bsp/\libucosii_bsp.a(nptcp.o)
 .debug_info    0x000478a8     0x11b5 ../fir_bsp/\libucosii_bsp.a(rawsock.o)
 .debug_info    0x00048a5d     0x1c73 ../fir_bsp/\libucosii_bsp.a(sockcall.o)
 .debug_info    0x0004a6d0     0x1a79 ../fir_bsp/\libucosii_bsp.a(socket.o)
 .debug_info    0x0004c149     0x153f ../fir_bsp/\libucosii_bsp.a(socket2.o)
 .debug_info    0x0004d688     0x1258 ../fir_bsp/\libucosii_bsp.a(soselect.o)
 .debug_info    0x0004e8e0     0x210a ../fir_bsp/\libucosii_bsp.a(tcp_in.o)
 .debug_info    0x000509ea     0x1df9 ../fir_bsp/\libucosii_bsp.a(tcp_out.o)
 .debug_info    0x000527e3     0x1e61 ../fir_bsp/\libucosii_bsp.a(tcp_subr.o)
 .debug_info    0x00054644     0x1c7c ../fir_bsp/\libucosii_bsp.a(tcp_timr.o)
 .debug_info    0x000562c0     0x1c39 ../fir_bsp/\libucosii_bsp.a(tcp_usr.o)
 .debug_info    0x00057ef9      0x18c ../fir_bsp/\libucosii_bsp.a(tcpport.o)
 .debug_info    0x00058085     0x130f ../fir_bsp/\libucosii_bsp.a(udpsock.o)
 .debug_info    0x00059394      0x41c ../fir_bsp/\libucosii_bsp.a(alt_alarm_start.o)
 .debug_info    0x000597b0      0x185 ../fir_bsp/\libucosii_bsp.a(alt_busy_sleep.o)
 .debug_info    0x00059935      0x499 ../fir_bsp/\libucosii_bsp.a(alt_close.o)
 .debug_info    0x00059dce      0x17e ../fir_bsp/\libucosii_bsp.a(alt_dcache_flush.o)
 .debug_info    0x00059f4c      0x7b7 ../fir_bsp/\libucosii_bsp.a(alt_dev.o)
 .debug_info    0x0005a703      0x291 ../fir_bsp/\libucosii_bsp.a(alt_dev_llist_insert.o)
 .debug_info    0x0005a994       0xe9 ../fir_bsp/\libucosii_bsp.a(alt_do_ctors.o)
 .debug_info    0x0005aa7d       0xe8 ../fir_bsp/\libucosii_bsp.a(alt_do_dtors.o)
 .debug_info    0x0005ab65      0x13e ../fir_bsp/\libucosii_bsp.a(alt_errno.o)
 .debug_info    0x0005aca3      0x446 ../fir_bsp/\libucosii_bsp.a(alt_find_dev.o)
 .debug_info    0x0005b0e9      0x46d ../fir_bsp/\libucosii_bsp.a(alt_iic.o)
 .debug_info    0x0005b556      0x2ee ../fir_bsp/\libucosii_bsp.a(alt_iic_isr_register.o)
 .debug_info    0x0005b844      0x6c3 ../fir_bsp/\libucosii_bsp.a(alt_io_redirect.o)
 .debug_info    0x0005bf07       0x5e ../fir_bsp/\libucosii_bsp.a(alt_irq_entry.o)
 .debug_info    0x0005bf65      0x294 ../fir_bsp/\libucosii_bsp.a(alt_irq_handler.o)
 .debug_info    0x0005c1f9      0x544 ../fir_bsp/\libucosii_bsp.a(alt_open.o)
 .debug_info    0x0005c73d      0x6bc ../fir_bsp/\libucosii_bsp.a(alt_read.o)
 .debug_info    0x0005cdf9      0x429 ../fir_bsp/\libucosii_bsp.a(alt_release_fd.o)
 .debug_info    0x0005d222      0x16b ../fir_bsp/\libucosii_bsp.a(alt_remap_cached.o)
 .debug_info    0x0005d38d      0x16f ../fir_bsp/\libucosii_bsp.a(alt_remap_uncached.o)
 .debug_info    0x0005d4fc      0x3eb ../fir_bsp/\libucosii_bsp.a(alt_tick.o)
 .debug_info    0x0005d8e7      0x6c5 ../fir_bsp/\libucosii_bsp.a(alt_write.o)
 .debug_info    0x0005dfac      0x13d ../fir_bsp/\libucosii_bsp.a(altera_nios2_qsys_irq.o)
 .debug_info    0x0005e0e9       0x5d ../fir_bsp/\libucosii_bsp.a(os_cpu_a.o)
 .debug_info    0x0005e146     0x12ad ../fir_bsp/\libucosii_bsp.a(os_cpu_c.o)
 .debug_info    0x0005f3f3      0x8c3 ../fir_bsp/\libucosii_bsp.a(altera_avalon_cfi_flash_amd.o)
 .debug_info    0x0005fcb6      0x8b9 ../fir_bsp/\libucosii_bsp.a(altera_avalon_cfi_flash_intel.o)
 .debug_info    0x0006056f      0x283 ../fir_bsp/\libucosii_bsp.a(altera_avalon_spi.o)
 .debug_info    0x000607f2      0xd79 ../fir_bsp/\libucosii_bsp.a(allports.o)
 .debug_info    0x0006156b      0x1fa ../fir_bsp/\libucosii_bsp.a(tk_misc.o)
 .debug_info    0x00061765      0x1e7 ../fir_bsp/\libucosii_bsp.a(alt_iniche_fcntl.o)
 .debug_info    0x0006194c     0x1253 ../fir_bsp/\libucosii_bsp.a(et_arp.o)
 .debug_info    0x00062b9f      0xf71 ../fir_bsp/\libucosii_bsp.a(iface.o)
 .debug_info    0x00063b10     0x16de ../fir_bsp/\libucosii_bsp.a(ip.o)
 .debug_info    0x000651ee      0xdc3 ../fir_bsp/\libucosii_bsp.a(ipdemux.o)
 .debug_info    0x00065fb1      0xa1f ../fir_bsp/\libucosii_bsp.a(ipmc.o)
 .debug_info    0x000669d0      0x2bd ../fir_bsp/\libucosii_bsp.a(ipport.o)
 .debug_info    0x00066c8d      0xf30 ../fir_bsp/\libucosii_bsp.a(ipraw.o)
 .debug_info    0x00067bbd      0xedb ../fir_bsp/\libucosii_bsp.a(iproute.o)
 .debug_info    0x00068a98     0x1272 ../fir_bsp/\libucosii_bsp.a(udp.o)
 .debug_info    0x00069d0a     0x110c ../fir_bsp/\libucosii_bsp.a(igmp.o)
 .debug_info    0x0006ae16     0x1340 ../fir_bsp/\libucosii_bsp.a(igmp2.o)
 .debug_info    0x0006c156     0x10bb ../fir_bsp/\libucosii_bsp.a(ipopt.o)
 .debug_info    0x0006d211      0xb93 ../fir_bsp/\libucosii_bsp.a(u_mctest.o)
 .debug_info    0x0006dda4      0xa31 ../fir_bsp/\libucosii_bsp.a(dhcsetup.o)
 .debug_info    0x0006e7d5      0x719 ../fir_bsp/\libucosii_bsp.a(memdev.o)
 .debug_info    0x0006eeee      0x538 ../fir_bsp/\libucosii_bsp.a(netmain.o)
 .debug_info    0x0006f426      0x3be ../fir_bsp/\libucosii_bsp.a(tcpcksum.o)
 .debug_info    0x0006f7e4     0x15d3 ../fir_bsp/\libucosii_bsp.a(dhcpclnt.o)
 .debug_info    0x00070db7      0x1b6 ../fir_bsp/\libucosii_bsp.a(dhcputil.o)
 .debug_info    0x00070f6d      0xb01 ../fir_bsp/\libucosii_bsp.a(udp_open.o)
 .debug_info    0x00071a6e     0x128d ../fir_bsp/\libucosii_bsp.a(in_pcb.o)
 .debug_info    0x00072cfb      0xfbe ../fir_bsp/\libucosii_bsp.a(vfsfiles.o)
 .debug_info    0x00073cb9      0x18d ../fir_bsp/\libucosii_bsp.a(vfsport.o)
 .debug_info    0x00073e46       0x64 ../fir_bsp/\libucosii_bsp.a(alt_exception_entry.o)
 .debug_info    0x00073eaa      0x6da ../fir_bsp/\libucosii_bsp.a(alt_fcntl.o)
 .debug_info    0x00074584      0x44d ../fir_bsp/\libucosii_bsp.a(alt_find_file.o)
 .debug_info    0x000749d1      0x5df ../fir_bsp/\libucosii_bsp.a(alt_get_fd.o)
 .debug_info    0x00074fb0      0x39b ../fir_bsp/\libucosii_bsp.a(timeouts.o)
 .debug_info    0x0007534b     0x1160 ../fir_bsp/\libucosii_bsp.a(icmp.o)
 .debug_info    0x000764ab     0x1842 ../fir_bsp/\libucosii_bsp.a(ip_reasm.o)
 .debug_info    0x00077ced      0x181 d:/altera/13.0sp1/nios2eds/bin/gnu/h-i686-mingw32/bin/../lib/gcc/nios2-elf/4.1.2/../../../../nios2-elf/lib\libc.a(lib_a-atexit.o)
 .debug_info    0x00077e6e      0x960 d:/altera/13.0sp1/nios2eds/bin/gnu/h-i686-mingw32/bin/../lib/gcc/nios2-elf/4.1.2/../../../../nios2-elf/lib\libc.a(lib_a-atoi.o)
 .debug_info    0x000787ce      0x954 d:/altera/13.0sp1/nios2eds/bin/gnu/h-i686-mingw32/bin/../lib/gcc/nios2-elf/4.1.2/../../../../nios2-elf/lib\libc.a(lib_a-calloc.o)
 .debug_info    0x00079122      0x115 d:/altera/13.0sp1/nios2eds/bin/gnu/h-i686-mingw32/bin/../lib/gcc/nios2-elf/4.1.2/../../../../nios2-elf/lib\libc.a(lib_a-memcmp.o)
 .debug_info    0x00079237      0xa16 d:/altera/13.0sp1/nios2eds/bin/gnu/h-i686-mingw32/bin/../lib/gcc/nios2-elf/4.1.2/../../../../nios2-elf/lib\libc.a(lib_a-sprintf.o)
 .debug_info    0x00079c4d      0x110 d:/altera/13.0sp1/nios2eds/bin/gnu/h-i686-mingw32/bin/../lib/gcc/nios2-elf/4.1.2/../../../../nios2-elf/lib\libc.a(lib_a-strcpy.o)
 .debug_info    0x00079d5d       0xf5 d:/altera/13.0sp1/nios2eds/bin/gnu/h-i686-mingw32/bin/../lib/gcc/nios2-elf/4.1.2/../../../../nios2-elf/lib\libc.a(lib_a-strncmp.o)
 .debug_info    0x00079e52      0x12a d:/altera/13.0sp1/nios2eds/bin/gnu/h-i686-mingw32/bin/../lib/gcc/nios2-elf/4.1.2/../../../../nios2-elf/lib\libc.a(lib_a-strncpy.o)
 .debug_info    0x00079f7c      0xa2a d:/altera/13.0sp1/nios2eds/bin/gnu/h-i686-mingw32/bin/../lib/gcc/nios2-elf/4.1.2/../../../../nios2-elf/lib\libc.a(lib_a-strtol.o)
 .debug_info    0x0007a9a6      0x9aa d:/altera/13.0sp1/nios2eds/bin/gnu/h-i686-mingw32/bin/../lib/gcc/nios2-elf/4.1.2/../../../../nios2-elf/lib\libc.a(lib_a-vprintf.o)
 .debug_info    0x0007b350      0x9ed d:/altera/13.0sp1/nios2eds/bin/gnu/h-i686-mingw32/bin/../lib/gcc/nios2-elf/4.1.2/../../../../nios2-elf/lib\libc.a(lib_a-vsprintf.o)
 .debug_info    0x0007bd3d      0x99c d:/altera/13.0sp1/nios2eds/bin/gnu/h-i686-mingw32/bin/../lib/gcc/nios2-elf/4.1.2/../../../../nios2-elf/lib\libc.a(lib_a-__atexit.o)

.debug_abbrev   0x00000000    0x12588
 *(.debug_abbrev)
 .debug_abbrev  0x00000000       0x14 ../fir_bsp//obj/HAL/src/crt0.o
 .debug_abbrev  0x00000014       0xa9 obj/default/LCD.o
 .debug_abbrev  0x000000bd      0x15c obj/default/SSS_DE2_115.o
 .debug_abbrev  0x00000219      0x1f1 obj/default/alt_error_handler.o
 .debug_abbrev  0x0000040a      0x231 obj/default/dm9000a.o
 .debug_abbrev  0x0000063b      0x173 obj/default/iniche_init.o
 .debug_abbrev  0x000007ae       0xf5 obj/default/led.o
 .debug_abbrev  0x000008a3      0x282 obj/default/network_utilities.o
 .debug_abbrev  0x00000b25      0x1c4 obj/default/simple_socket_server.o
 .debug_abbrev  0x00000ce9        0x1 obj/default/tse_my_system.o
 .debug_abbrev  0x00000cea       0x5d d:/altera/13.0sp1/nios2eds/bin/gnu/h-i686-mingw32/bin/../lib/gcc/nios2-elf/4.1.2\libgcc.a(_fixunsdfsi.o)
 .debug_abbrev  0x00000d47      0x1d2 d:/altera/13.0sp1/nios2eds/bin/gnu/h-i686-mingw32/bin/../lib/gcc/nios2-elf/4.1.2\libgcc.a(_addsub_df.o)
 .debug_abbrev  0x00000f19      0x204 d:/altera/13.0sp1/nios2eds/bin/gnu/h-i686-mingw32/bin/../lib/gcc/nios2-elf/4.1.2\libgcc.a(_mul_df.o)
 .debug_abbrev  0x0000111d      0x151 d:/altera/13.0sp1/nios2eds/bin/gnu/h-i686-mingw32/bin/../lib/gcc/nios2-elf/4.1.2\libgcc.a(_ge_df.o)
 .debug_abbrev  0x0000126e      0x176 d:/altera/13.0sp1/nios2eds/bin/gnu/h-i686-mingw32/bin/../lib/gcc/nios2-elf/4.1.2\libgcc.a(_df_to_si.o)
 .debug_abbrev  0x000013e4       0xba d:/altera/13.0sp1/nios2eds/bin/gnu/h-i686-mingw32/bin/../lib/gcc/nios2-elf/4.1.2\libgcc.a(_thenan_df.o)
 .debug_abbrev  0x0000149e      0x155 d:/altera/13.0sp1/nios2eds/bin/gnu/h-i686-mingw32/bin/../lib/gcc/nios2-elf/4.1.2\libgcc.a(_usi_to_df.o)
 .debug_abbrev  0x000015f3       0xee d:/altera/13.0sp1/nios2eds/bin/gnu/h-i686-mingw32/bin/../lib/gcc/nios2-elf/4.1.2\libgcc.a(_muldi3.o)
 .debug_abbrev  0x000016e1       0xb9 d:/altera/13.0sp1/nios2eds/bin/gnu/h-i686-mingw32/bin/../lib/gcc/nios2-elf/4.1.2\libgcc.a(_clzsi2.o)
 .debug_abbrev  0x0000179a      0x1b1 d:/altera/13.0sp1/nios2eds/bin/gnu/h-i686-mingw32/bin/../lib/gcc/nios2-elf/4.1.2\libgcc.a(_pack_df.o)
 .debug_abbrev  0x0000194b      0x149 d:/altera/13.0sp1/nios2eds/bin/gnu/h-i686-mingw32/bin/../lib/gcc/nios2-elf/4.1.2\libgcc.a(_unpack_df.o)
 .debug_abbrev  0x00001a94      0x132 d:/altera/13.0sp1/nios2eds/bin/gnu/h-i686-mingw32/bin/../lib/gcc/nios2-elf/4.1.2\libgcc.a(_fpcmp_parts_df.o)
 .debug_abbrev  0x00001bc6       0x61 d:/altera/13.0sp1/nios2eds/bin/gnu/h-i686-mingw32/bin/../lib/gcc/nios2-elf/4.1.2\libgcc.a(_clz.o)
 .debug_abbrev  0x00001c27       0x61 d:/altera/13.0sp1/nios2eds/bin/gnu/h-i686-mingw32/bin/../lib/gcc/nios2-elf/4.1.2/../../../../nios2-elf/lib\libc.a(lib_a-ctype_.o)
 .debug_abbrev  0x00001c88      0x16e d:/altera/13.0sp1/nios2eds/bin/gnu/h-i686-mingw32/bin/../lib/gcc/nios2-elf/4.1.2/../../../../nios2-elf/lib\libc.a(lib_a-exit.o)
 .debug_abbrev  0x00001df6      0x197 d:/altera/13.0sp1/nios2eds/bin/gnu/h-i686-mingw32/bin/../lib/gcc/nios2-elf/4.1.2/../../../../nios2-elf/lib\libc.a(lib_a-fprintf.o)
 .debug_abbrev  0x00001f8d      0x1b1 d:/altera/13.0sp1/nios2eds/bin/gnu/h-i686-mingw32/bin/../lib/gcc/nios2-elf/4.1.2/../../../../nios2-elf/lib\libc.a(lib_a-fwrite.o)
 .debug_abbrev  0x0000213e      0x17f d:/altera/13.0sp1/nios2eds/bin/gnu/h-i686-mingw32/bin/../lib/gcc/nios2-elf/4.1.2/../../../../nios2-elf/lib\libc.a(lib_a-getc.o)
 .debug_abbrev  0x000022bd      0x157 d:/altera/13.0sp1/nios2eds/bin/gnu/h-i686-mingw32/bin/../lib/gcc/nios2-elf/4.1.2/../../../../nios2-elf/lib\libc.a(lib_a-impure.o)
 .debug_abbrev  0x00002414      0x187 d:/altera/13.0sp1/nios2eds/bin/gnu/h-i686-mingw32/bin/../lib/gcc/nios2-elf/4.1.2/../../../../nios2-elf/lib\libc.a(lib_a-malloc.o)
 .debug_abbrev  0x0000259b      0x216 d:/altera/13.0sp1/nios2eds/bin/gnu/h-i686-mingw32/bin/../lib/gcc/nios2-elf/4.1.2/../../../../nios2-elf/lib\libc.a(lib_a-mallocr.o)
 .debug_abbrev  0x000027b1       0xb5 d:/altera/13.0sp1/nios2eds/bin/gnu/h-i686-mingw32/bin/../lib/gcc/nios2-elf/4.1.2/../../../../nios2-elf/lib\libc.a(lib_a-memcpy.o)
 .debug_abbrev  0x00002866       0xb5 d:/altera/13.0sp1/nios2eds/bin/gnu/h-i686-mingw32/bin/../lib/gcc/nios2-elf/4.1.2/../../../../nios2-elf/lib\libc.a(lib_a-memmove.o)
 .debug_abbrev  0x0000291b       0xb8 d:/altera/13.0sp1/nios2eds/bin/gnu/h-i686-mingw32/bin/../lib/gcc/nios2-elf/4.1.2/../../../../nios2-elf/lib\libc.a(lib_a-memset.o)
 .debug_abbrev  0x000029d3      0x194 d:/altera/13.0sp1/nios2eds/bin/gnu/h-i686-mingw32/bin/../lib/gcc/nios2-elf/4.1.2/../../../../nios2-elf/lib\libc.a(lib_a-perror.o)
 .debug_abbrev  0x00002b67      0x191 d:/altera/13.0sp1/nios2eds/bin/gnu/h-i686-mingw32/bin/../lib/gcc/nios2-elf/4.1.2/../../../../nios2-elf/lib\libc.a(lib_a-printf.o)
 .debug_abbrev  0x00002cf8      0x17f d:/altera/13.0sp1/nios2eds/bin/gnu/h-i686-mingw32/bin/../lib/gcc/nios2-elf/4.1.2/../../../../nios2-elf/lib\libc.a(lib_a-putc.o)
 .debug_abbrev  0x00002e77      0x170 d:/altera/13.0sp1/nios2eds/bin/gnu/h-i686-mingw32/bin/../lib/gcc/nios2-elf/4.1.2/../../../../nios2-elf/lib\libc.a(lib_a-putchar.o)
 .debug_abbrev  0x00002fe7      0x1ac d:/altera/13.0sp1/nios2eds/bin/gnu/h-i686-mingw32/bin/../lib/gcc/nios2-elf/4.1.2/../../../../nios2-elf/lib\libc.a(lib_a-puts.o)
 .debug_abbrev  0x00003193      0x189 d:/altera/13.0sp1/nios2eds/bin/gnu/h-i686-mingw32/bin/../lib/gcc/nios2-elf/4.1.2/../../../../nios2-elf/lib\libc.a(lib_a-rget.o)
 .debug_abbrev  0x0000331c      0x18c d:/altera/13.0sp1/nios2eds/bin/gnu/h-i686-mingw32/bin/../lib/gcc/nios2-elf/4.1.2/../../../../nios2-elf/lib\libc.a(lib_a-sbrkr.o)
 .debug_abbrev  0x000034a8       0x80 d:/altera/13.0sp1/nios2eds/bin/gnu/h-i686-mingw32/bin/../lib/gcc/nios2-elf/4.1.2/../../../../nios2-elf/lib\libc.a(lib_a-strchr.o)
 .debug_abbrev  0x00003528       0x68 d:/altera/13.0sp1/nios2eds/bin/gnu/h-i686-mingw32/bin/../lib/gcc/nios2-elf/4.1.2/../../../../nios2-elf/lib\libc.a(lib_a-strerror.o)
 .debug_abbrev  0x00003590       0x8b d:/altera/13.0sp1/nios2eds/bin/gnu/h-i686-mingw32/bin/../lib/gcc/nios2-elf/4.1.2/../../../../nios2-elf/lib\libc.a(lib_a-strlen.o)
 .debug_abbrev  0x0000361b       0x5b d:/altera/13.0sp1/nios2eds/bin/gnu/h-i686-mingw32/bin/../lib/gcc/nios2-elf/4.1.2/../../../../nios2-elf/lib\libc.a(lib_a-u_strerr.o)
 .debug_abbrev  0x00003676      0x30a d:/altera/13.0sp1/nios2eds/bin/gnu/h-i686-mingw32/bin/../lib/gcc/nios2-elf/4.1.2/../../../../nios2-elf/lib\libc.a(lib_a-vfprintf.o)
 .debug_abbrev  0x00003980      0x198 d:/altera/13.0sp1/nios2eds/bin/gnu/h-i686-mingw32/bin/../lib/gcc/nios2-elf/4.1.2/../../../../nios2-elf/lib\libc.a(lib_a-wbuf.o)
 .debug_abbrev  0x00003b18      0x170 d:/altera/13.0sp1/nios2eds/bin/gnu/h-i686-mingw32/bin/../lib/gcc/nios2-elf/4.1.2/../../../../nios2-elf/lib\libc.a(lib_a-wsetup.o)
 .debug_abbrev  0x00003c88      0x1de d:/altera/13.0sp1/nios2eds/bin/gnu/h-i686-mingw32/bin/../lib/gcc/nios2-elf/4.1.2/../../../../nios2-elf/lib\libc.a(lib_a-__call_atexit.o)
 .debug_abbrev  0x00003e66      0x232 d:/altera/13.0sp1/nios2eds/bin/gnu/h-i686-mingw32/bin/../lib/gcc/nios2-elf/4.1.2/../../../../nios2-elf/lib\libc.a(lib_a-dtoa.o)
 .debug_abbrev  0x00004098      0x1c6 d:/altera/13.0sp1/nios2eds/bin/gnu/h-i686-mingw32/bin/../lib/gcc/nios2-elf/4.1.2/../../../../nios2-elf/lib\libc.a(lib_a-fflush.o)
 .debug_abbrev  0x0000425e      0x24c d:/altera/13.0sp1/nios2eds/bin/gnu/h-i686-mingw32/bin/../lib/gcc/nios2-elf/4.1.2/../../../../nios2-elf/lib\libc.a(lib_a-findfp.o)
 .debug_abbrev  0x000044aa      0x18c d:/altera/13.0sp1/nios2eds/bin/gnu/h-i686-mingw32/bin/../lib/gcc/nios2-elf/4.1.2/../../../../nios2-elf/lib\libc.a(lib_a-fputc.o)
 .debug_abbrev  0x00004636      0x1aa d:/altera/13.0sp1/nios2eds/bin/gnu/h-i686-mingw32/bin/../lib/gcc/nios2-elf/4.1.2/../../../../nios2-elf/lib\libc.a(lib_a-fputs.o)
 .debug_abbrev  0x000047e0      0x1d9 d:/altera/13.0sp1/nios2eds/bin/gnu/h-i686-mingw32/bin/../lib/gcc/nios2-elf/4.1.2/../../../../nios2-elf/lib\libc.a(lib_a-freer.o)
 .debug_abbrev  0x000049b9      0x1a3 d:/altera/13.0sp1/nios2eds/bin/gnu/h-i686-mingw32/bin/../lib/gcc/nios2-elf/4.1.2/../../../../nios2-elf/lib\libc.a(lib_a-fvwrite.o)
 .debug_abbrev  0x00004b5c      0x1e3 d:/altera/13.0sp1/nios2eds/bin/gnu/h-i686-mingw32/bin/../lib/gcc/nios2-elf/4.1.2/../../../../nios2-elf/lib\libc.a(lib_a-fwalk.o)
 .debug_abbrev  0x00004d3f       0x3b d:/altera/13.0sp1/nios2eds/bin/gnu/h-i686-mingw32/bin/../lib/gcc/nios2-elf/4.1.2/../../../../nios2-elf/lib\libc.a(lib_a-int_errno.o)
 .debug_abbrev  0x00004d7a      0x1ed d:/altera/13.0sp1/nios2eds/bin/gnu/h-i686-mingw32/bin/../lib/gcc/nios2-elf/4.1.2/../../../../nios2-elf/lib\libc.a(lib_a-locale.o)
 .debug_abbrev  0x00004f67      0x197 d:/altera/13.0sp1/nios2eds/bin/gnu/h-i686-mingw32/bin/../lib/gcc/nios2-elf/4.1.2/../../../../nios2-elf/lib\libc.a(lib_a-makebuf.o)
 .debug_abbrev  0x000050fe       0xb5 d:/altera/13.0sp1/nios2eds/bin/gnu/h-i686-mingw32/bin/../lib/gcc/nios2-elf/4.1.2/../../../../nios2-elf/lib\libc.a(lib_a-memchr.o)
 .debug_abbrev  0x000051b3      0x297 d:/altera/13.0sp1/nios2eds/bin/gnu/h-i686-mingw32/bin/../lib/gcc/nios2-elf/4.1.2/../../../../nios2-elf/lib\libc.a(lib_a-mprec.o)
 .debug_abbrev  0x0000544a      0x1c3 d:/altera/13.0sp1/nios2eds/bin/gnu/h-i686-mingw32/bin/../lib/gcc/nios2-elf/4.1.2/../../../../nios2-elf/lib\libc.a(lib_a-reallocr.o)
 .debug_abbrev  0x0000560d      0x187 d:/altera/13.0sp1/nios2eds/bin/gnu/h-i686-mingw32/bin/../lib/gcc/nios2-elf/4.1.2/../../../../nios2-elf/lib\libc.a(lib_a-refill.o)
 .debug_abbrev  0x00005794       0x79 d:/altera/13.0sp1/nios2eds/bin/gnu/h-i686-mingw32/bin/../lib/gcc/nios2-elf/4.1.2/../../../../nios2-elf/lib\libc.a(lib_a-s_isinfd.o)
 .debug_abbrev  0x0000580d       0x79 d:/altera/13.0sp1/nios2eds/bin/gnu/h-i686-mingw32/bin/../lib/gcc/nios2-elf/4.1.2/../../../../nios2-elf/lib\libc.a(lib_a-s_isnand.o)
 .debug_abbrev  0x00005886      0x1c9 d:/altera/13.0sp1/nios2eds/bin/gnu/h-i686-mingw32/bin/../lib/gcc/nios2-elf/4.1.2/../../../../nios2-elf/lib\libc.a(lib_a-stdio.o)
 .debug_abbrev  0x00005a4f       0x80 d:/altera/13.0sp1/nios2eds/bin/gnu/h-i686-mingw32/bin/../lib/gcc/nios2-elf/4.1.2/../../../../nios2-elf/lib\libc.a(lib_a-strcmp.o)
 .debug_abbrev  0x00005acf      0x184 d:/altera/13.0sp1/nios2eds/bin/gnu/h-i686-mingw32/bin/../lib/gcc/nios2-elf/4.1.2/../../../../nios2-elf/lib\libc.a(lib_a-writer.o)
 .debug_abbrev  0x00005c53      0x1b8 d:/altera/13.0sp1/nios2eds/bin/gnu/h-i686-mingw32/bin/../lib/gcc/nios2-elf/4.1.2/../../../../nios2-elf/lib\libc.a(lib_a-callocr.o)
 .debug_abbrev  0x00005e0b      0x17f d:/altera/13.0sp1/nios2eds/bin/gnu/h-i686-mingw32/bin/../lib/gcc/nios2-elf/4.1.2/../../../../nios2-elf/lib\libc.a(lib_a-closer.o)
 .debug_abbrev  0x00005f8a      0x1a7 d:/altera/13.0sp1/nios2eds/bin/gnu/h-i686-mingw32/bin/../lib/gcc/nios2-elf/4.1.2/../../../../nios2-elf/lib\libc.a(lib_a-fclose.o)
 .debug_abbrev  0x00006131      0x18e d:/altera/13.0sp1/nios2eds/bin/gnu/h-i686-mingw32/bin/../lib/gcc/nios2-elf/4.1.2/../../../../nios2-elf/lib\libc.a(lib_a-fstatr.o)
 .debug_abbrev  0x000062bf      0x17f d:/altera/13.0sp1/nios2eds/bin/gnu/h-i686-mingw32/bin/../lib/gcc/nios2-elf/4.1.2/../../../../nios2-elf/lib\libc.a(lib_a-isattyr.o)
 .debug_abbrev  0x0000643e      0x18e d:/altera/13.0sp1/nios2eds/bin/gnu/h-i686-mingw32/bin/../lib/gcc/nios2-elf/4.1.2/../../../../nios2-elf/lib\libc.a(lib_a-lseekr.o)
 .debug_abbrev  0x000065cc      0x17f d:/altera/13.0sp1/nios2eds/bin/gnu/h-i686-mingw32/bin/../lib/gcc/nios2-elf/4.1.2/../../../../nios2-elf/lib\libc.a(lib_a-readr.o)
 .debug_abbrev  0x0000674b      0x16b d:/altera/13.0sp1/nios2eds/bin/gnu/h-i686-mingw32/bin/../lib/gcc/nios2-elf/4.1.2\libgcc.a(_udivdi3.o)
 .debug_abbrev  0x000068b6      0x18e d:/altera/13.0sp1/nios2eds/bin/gnu/h-i686-mingw32/bin/../lib/gcc/nios2-elf/4.1.2\libgcc.a(_umoddi3.o)
 .debug_abbrev  0x00006a44      0x1e3 d:/altera/13.0sp1/nios2eds/bin/gnu/h-i686-mingw32/bin/../lib/gcc/nios2-elf/4.1.2\libgcc.a(_div_df.o)
 .debug_abbrev  0x00006c27      0x151 d:/altera/13.0sp1/nios2eds/bin/gnu/h-i686-mingw32/bin/../lib/gcc/nios2-elf/4.1.2\libgcc.a(_eq_df.o)
 .debug_abbrev  0x00006d78      0x151 d:/altera/13.0sp1/nios2eds/bin/gnu/h-i686-mingw32/bin/../lib/gcc/nios2-elf/4.1.2\libgcc.a(_ne_df.o)
 .debug_abbrev  0x00006ec9      0x151 d:/altera/13.0sp1/nios2eds/bin/gnu/h-i686-mingw32/bin/../lib/gcc/nios2-elf/4.1.2\libgcc.a(_gt_df.o)
 .debug_abbrev  0x0000701a      0x151 d:/altera/13.0sp1/nios2eds/bin/gnu/h-i686-mingw32/bin/../lib/gcc/nios2-elf/4.1.2\libgcc.a(_lt_df.o)
 .debug_abbrev  0x0000716b      0x13f d:/altera/13.0sp1/nios2eds/bin/gnu/h-i686-mingw32/bin/../lib/gcc/nios2-elf/4.1.2\libgcc.a(_si_to_df.o)
 .debug_abbrev  0x000072aa       0xe0 d:/altera/13.0sp1/nios2eds/bin/gnu/h-i686-mingw32/bin/../lib/gcc/nios2-elf/4.1.2\libgcc.a(lib2-divmod.o)
 .debug_abbrev  0x0000738a       0xaa ../fir_bsp/\libucosii_bsp.a(alt_exit.o)
 .debug_abbrev  0x00007434      0x128 ../fir_bsp/\libucosii_bsp.a(alt_flash_dev.o)
 .debug_abbrev  0x0000755c      0x102 ../fir_bsp/\libucosii_bsp.a(alt_fstat.o)
 .debug_abbrev  0x0000765e      0x180 ../fir_bsp/\libucosii_bsp.a(alt_irq_register.o)
 .debug_abbrev  0x000077de       0x44 ../fir_bsp/\libucosii_bsp.a(alt_irq_vars.o)
 .debug_abbrev  0x00007822      0x102 ../fir_bsp/\libucosii_bsp.a(alt_isatty.o)
 .debug_abbrev  0x00007924      0x102 ../fir_bsp/\libucosii_bsp.a(alt_lseek.o)
 .debug_abbrev  0x00007a26      0x120 ../fir_bsp/\libucosii_bsp.a(alt_main.o)
 .debug_abbrev  0x00007b46      0x115 ../fir_bsp/\libucosii_bsp.a(alt_sbrk.o)
 .debug_abbrev  0x00007c5b       0xb7 ../fir_bsp/\libucosii_bsp.a(alt_usleep.o)
 .debug_abbrev  0x00007d12      0x1b3 ../fir_bsp/\libucosii_bsp.a(alt_env_lock.o)
 .debug_abbrev  0x00007ec5      0x234 ../fir_bsp/\libucosii_bsp.a(alt_malloc_lock.o)
 .debug_abbrev  0x000080f9      0x2aa ../fir_bsp/\libucosii_bsp.a(os_core.o)
 .debug_abbrev  0x000083a3      0x114 ../fir_bsp/\libucosii_bsp.a(os_dbg.o)
 .debug_abbrev  0x000084b7      0x21b ../fir_bsp/\libucosii_bsp.a(os_flag.o)
 .debug_abbrev  0x000086d2      0x235 ../fir_bsp/\libucosii_bsp.a(os_mem.o)
 .debug_abbrev  0x00008907      0x20d ../fir_bsp/\libucosii_bsp.a(os_q.o)
 .debug_abbrev  0x00008b14      0x20d ../fir_bsp/\libucosii_bsp.a(os_sem.o)
 .debug_abbrev  0x00008d21      0x20e ../fir_bsp/\libucosii_bsp.a(os_task.o)
 .debug_abbrev  0x00008f2f      0x1de ../fir_bsp/\libucosii_bsp.a(os_time.o)
 .debug_abbrev  0x0000910d      0x1c8 ../fir_bsp/\libucosii_bsp.a(alt_sys_init.o)
 .debug_abbrev  0x000092d5      0x1bf ../fir_bsp/\libucosii_bsp.a(altera_avalon_cfi_flash.o)
 .debug_abbrev  0x00009494      0x185 ../fir_bsp/\libucosii_bsp.a(altera_avalon_cfi_flash_table.o)
 .debug_abbrev  0x00009619      0x1bf ../fir_bsp/\libucosii_bsp.a(altera_avalon_epcs_flash_controller.o)
 .debug_abbrev  0x000097d8      0x13c ../fir_bsp/\libucosii_bsp.a(altera_avalon_jtag_uart_fd.o)
 .debug_abbrev  0x00009914      0x21e ../fir_bsp/\libucosii_bsp.a(altera_avalon_jtag_uart_init.o)
 .debug_abbrev  0x00009b32      0x135 ../fir_bsp/\libucosii_bsp.a(altera_avalon_jtag_uart_ioctl.o)
 .debug_abbrev  0x00009c67      0x1ee ../fir_bsp/\libucosii_bsp.a(altera_avalon_jtag_uart_read.o)
 .debug_abbrev  0x00009e55      0x1ea ../fir_bsp/\libucosii_bsp.a(altera_avalon_jtag_uart_write.o)
 .debug_abbrev  0x0000a03f      0x235 ../fir_bsp/\libucosii_bsp.a(altera_avalon_lcd_16207.o)
 .debug_abbrev  0x0000a274      0x12f ../fir_bsp/\libucosii_bsp.a(altera_avalon_lcd_16207_fd.o)
 .debug_abbrev  0x0000a3a3      0x137 ../fir_bsp/\libucosii_bsp.a(altera_avalon_timer_sc.o)
 .debug_abbrev  0x0000a4da      0x124 ../fir_bsp/\libucosii_bsp.a(altera_avalon_uart_fd.o)
 .debug_abbrev  0x0000a5fe      0x204 ../fir_bsp/\libucosii_bsp.a(altera_avalon_uart_init.o)
 .debug_abbrev  0x0000a802      0x1b9 ../fir_bsp/\libucosii_bsp.a(altera_avalon_uart_read.o)
 .debug_abbrev  0x0000a9bb      0x1c0 ../fir_bsp/\libucosii_bsp.a(altera_avalon_uart_write.o)
 .debug_abbrev  0x0000ab7b      0x145 ../fir_bsp/\libucosii_bsp.a(epcs_commands.o)
 .debug_abbrev  0x0000acc0       0x77 ../fir_bsp/\libucosii_bsp.a(alt_iniche_close.o)
 .debug_abbrev  0x0000ad37      0x11f ../fir_bsp/\libucosii_bsp.a(alt_iniche_dev.o)
 .debug_abbrev  0x0000ae56       0x7e ../fir_bsp/\libucosii_bsp.a(alt_iniche_read.o)
 .debug_abbrev  0x0000aed4       0x85 ../fir_bsp/\libucosii_bsp.a(alt_iniche_write.o)
 .debug_abbrev  0x0000af59      0x184 ../fir_bsp/\libucosii_bsp.a(ipnet.o)
 .debug_abbrev  0x0000b0dd      0x18b ../fir_bsp/\libucosii_bsp.a(ipstart.o)
 .debug_abbrev  0x0000b268      0x191 ../fir_bsp/\libucosii_bsp.a(igmp_cmn.o)
 .debug_abbrev  0x0000b3f9      0x1a3 ../fir_bsp/\libucosii_bsp.a(bsdsock.o)
 .debug_abbrev  0x0000b59c       0x96 ../fir_bsp/\libucosii_bsp.a(cksum.o)
 .debug_abbrev  0x0000b632      0x18b ../fir_bsp/\libucosii_bsp.a(in_utils.o)
 .debug_abbrev  0x0000b7bd      0x154 ../fir_bsp/\libucosii_bsp.a(parseip.o)
 .debug_abbrev  0x0000b911      0x144 ../fir_bsp/\libucosii_bsp.a(tk_crnos.o)
 .debug_abbrev  0x0000ba55      0x196 ../fir_bsp/\libucosii_bsp.a(pktalloc.o)
 .debug_abbrev  0x0000bbeb       0xcb ../fir_bsp/\libucosii_bsp.a(q.o)
 .debug_abbrev  0x0000bcb6       0x14 ../fir_bsp/\libucosii_bsp.a(asm_cksum.o)
 .debug_abbrev  0x0000bcca      0x242 ../fir_bsp/\libucosii_bsp.a(brdutils.o)
 .debug_abbrev  0x0000bf0c      0x194 ../fir_bsp/\libucosii_bsp.a(osportco.o)
 .debug_abbrev  0x0000c0a0      0x199 ../fir_bsp/\libucosii_bsp.a(targnios.o)
 .debug_abbrev  0x0000c239      0x1dc ../fir_bsp/\libucosii_bsp.a(nptcp.o)
 .debug_abbrev  0x0000c415      0x136 ../fir_bsp/\libucosii_bsp.a(rawsock.o)
 .debug_abbrev  0x0000c54b      0x1de ../fir_bsp/\libucosii_bsp.a(sockcall.o)
 .debug_abbrev  0x0000c729      0x1ef ../fir_bsp/\libucosii_bsp.a(socket.o)
 .debug_abbrev  0x0000c918      0x1ac ../fir_bsp/\libucosii_bsp.a(socket2.o)
 .debug_abbrev  0x0000cac4      0x17f ../fir_bsp/\libucosii_bsp.a(soselect.o)
 .debug_abbrev  0x0000cc43      0x1ca ../fir_bsp/\libucosii_bsp.a(tcp_in.o)
 .debug_abbrev  0x0000ce0d      0x1a4 ../fir_bsp/\libucosii_bsp.a(tcp_out.o)
 .debug_abbrev  0x0000cfb1      0x1c3 ../fir_bsp/\libucosii_bsp.a(tcp_subr.o)
 .debug_abbrev  0x0000d174      0x19e ../fir_bsp/\libucosii_bsp.a(tcp_timr.o)
 .debug_abbrev  0x0000d312      0x175 ../fir_bsp/\libucosii_bsp.a(tcp_usr.o)
 .debug_abbrev  0x0000d487       0x77 ../fir_bsp/\libucosii_bsp.a(tcpport.o)
 .debug_abbrev  0x0000d4fe      0x190 ../fir_bsp/\libucosii_bsp.a(udpsock.o)
 .debug_abbrev  0x0000d68e      0x172 ../fir_bsp/\libucosii_bsp.a(alt_alarm_start.o)
 .debug_abbrev  0x0000d800       0x6c ../fir_bsp/\libucosii_bsp.a(alt_busy_sleep.o)
 .debug_abbrev  0x0000d86c      0x102 ../fir_bsp/\libucosii_bsp.a(alt_close.o)
 .debug_abbrev  0x0000d96e       0x7a ../fir_bsp/\libucosii_bsp.a(alt_dcache_flush.o)
 .debug_abbrev  0x0000d9e8      0x10a ../fir_bsp/\libucosii_bsp.a(alt_dev.o)
 .debug_abbrev  0x0000daf2       0xf6 ../fir_bsp/\libucosii_bsp.a(alt_dev_llist_insert.o)
 .debug_abbrev  0x0000dbe8       0x76 ../fir_bsp/\libucosii_bsp.a(alt_do_ctors.o)
 .debug_abbrev  0x0000dc5e       0x76 ../fir_bsp/\libucosii_bsp.a(alt_do_dtors.o)
 .debug_abbrev  0x0000dcd4       0x5e ../fir_bsp/\libucosii_bsp.a(alt_errno.o)
 .debug_abbrev  0x0000dd32       0xd6 ../fir_bsp/\libucosii_bsp.a(alt_find_dev.o)
 .debug_abbrev  0x0000de08      0x134 ../fir_bsp/\libucosii_bsp.a(alt_iic.o)
 .debug_abbrev  0x0000df3c      0x14e ../fir_bsp/\libucosii_bsp.a(alt_iic_isr_register.o)
 .debug_abbrev  0x0000e08a       0xf7 ../fir_bsp/\libucosii_bsp.a(alt_io_redirect.o)
 .debug_abbrev  0x0000e181       0x12 ../fir_bsp/\libucosii_bsp.a(alt_irq_entry.o)
 .debug_abbrev  0x0000e193      0x124 ../fir_bsp/\libucosii_bsp.a(alt_irq_handler.o)
 .debug_abbrev  0x0000e2b7      0x119 ../fir_bsp/\libucosii_bsp.a(alt_open.o)
 .debug_abbrev  0x0000e3d0      0x102 ../fir_bsp/\libucosii_bsp.a(alt_read.o)
 .debug_abbrev  0x0000e4d2       0xd3 ../fir_bsp/\libucosii_bsp.a(alt_release_fd.o)
 .debug_abbrev  0x0000e5a5       0x74 ../fir_bsp/\libucosii_bsp.a(alt_remap_cached.o)
 .debug_abbrev  0x0000e619       0x74 ../fir_bsp/\libucosii_bsp.a(alt_remap_uncached.o)
 .debug_abbrev  0x0000e68d      0x150 ../fir_bsp/\libucosii_bsp.a(alt_tick.o)
 .debug_abbrev  0x0000e7dd      0x107 ../fir_bsp/\libucosii_bsp.a(alt_write.o)
 .debug_abbrev  0x0000e8e4       0x3f ../fir_bsp/\libucosii_bsp.a(altera_nios2_qsys_irq.o)
 .debug_abbrev  0x0000e923       0x14 ../fir_bsp/\libucosii_bsp.a(os_cpu_a.o)
 .debug_abbrev  0x0000e937      0x1d0 ../fir_bsp/\libucosii_bsp.a(os_cpu_c.o)
 .debug_abbrev  0x0000eb07      0x14d ../fir_bsp/\libucosii_bsp.a(altera_avalon_cfi_flash_amd.o)
 .debug_abbrev  0x0000ec54      0x14d ../fir_bsp/\libucosii_bsp.a(altera_avalon_cfi_flash_intel.o)
 .debug_abbrev  0x0000eda1       0x7c ../fir_bsp/\libucosii_bsp.a(altera_avalon_spi.o)
 .debug_abbrev  0x0000ee1d      0x173 ../fir_bsp/\libucosii_bsp.a(allports.o)
 .debug_abbrev  0x0000ef90       0xa4 ../fir_bsp/\libucosii_bsp.a(tk_misc.o)
 .debug_abbrev  0x0000f034       0x92 ../fir_bsp/\libucosii_bsp.a(alt_iniche_fcntl.o)
 .debug_abbrev  0x0000f0c6      0x1eb ../fir_bsp/\libucosii_bsp.a(et_arp.o)
 .debug_abbrev  0x0000f2b1      0x13d ../fir_bsp/\libucosii_bsp.a(iface.o)
 .debug_abbrev  0x0000f3ee      0x1ed ../fir_bsp/\libucosii_bsp.a(ip.o)
 .debug_abbrev  0x0000f5db      0x166 ../fir_bsp/\libucosii_bsp.a(ipdemux.o)
 .debug_abbrev  0x0000f741      0x114 ../fir_bsp/\libucosii_bsp.a(ipmc.o)
 .debug_abbrev  0x0000f855       0xe9 ../fir_bsp/\libucosii_bsp.a(ipport.o)
 .debug_abbrev  0x0000f93e      0x19c ../fir_bsp/\libucosii_bsp.a(ipraw.o)
 .debug_abbrev  0x0000fada      0x156 ../fir_bsp/\libucosii_bsp.a(iproute.o)
 .debug_abbrev  0x0000fc30      0x1c0 ../fir_bsp/\libucosii_bsp.a(udp.o)
 .debug_abbrev  0x0000fdf0      0x10e ../fir_bsp/\libucosii_bsp.a(igmp.o)
 .debug_abbrev  0x0000fefe      0x17a ../fir_bsp/\libucosii_bsp.a(igmp2.o)
 .debug_abbrev  0x00010078      0x189 ../fir_bsp/\libucosii_bsp.a(ipopt.o)
 .debug_abbrev  0x00010201      0x15a ../fir_bsp/\libucosii_bsp.a(u_mctest.o)
 .debug_abbrev  0x0001035b      0x12e ../fir_bsp/\libucosii_bsp.a(dhcsetup.o)
 .debug_abbrev  0x00010489      0x175 ../fir_bsp/\libucosii_bsp.a(memdev.o)
 .debug_abbrev  0x000105fe      0x152 ../fir_bsp/\libucosii_bsp.a(netmain.o)
 .debug_abbrev  0x00010750       0xad ../fir_bsp/\libucosii_bsp.a(tcpcksum.o)
 .debug_abbrev  0x000107fd      0x217 ../fir_bsp/\libucosii_bsp.a(dhcpclnt.o)
 .debug_abbrev  0x00010a14       0x8f ../fir_bsp/\libucosii_bsp.a(dhcputil.o)
 .debug_abbrev  0x00010aa3      0x144 ../fir_bsp/\libucosii_bsp.a(udp_open.o)
 .debug_abbrev  0x00010be7      0x19f ../fir_bsp/\libucosii_bsp.a(in_pcb.o)
 .debug_abbrev  0x00010d86      0x1b6 ../fir_bsp/\libucosii_bsp.a(vfsfiles.o)
 .debug_abbrev  0x00010f3c       0x77 ../fir_bsp/\libucosii_bsp.a(vfsport.o)
 .debug_abbrev  0x00010fb3       0x12 ../fir_bsp/\libucosii_bsp.a(alt_exception_entry.o)
 .debug_abbrev  0x00010fc5      0x107 ../fir_bsp/\libucosii_bsp.a(alt_fcntl.o)
 .debug_abbrev  0x000110cc       0xd6 ../fir_bsp/\libucosii_bsp.a(alt_find_file.o)
 .debug_abbrev  0x000111a2      0x173 ../fir_bsp/\libucosii_bsp.a(alt_get_fd.o)
 .debug_abbrev  0x00011315      0x151 ../fir_bsp/\libucosii_bsp.a(timeouts.o)
 .debug_abbrev  0x00011466      0x15d ../fir_bsp/\libucosii_bsp.a(icmp.o)
 .debug_abbrev  0x000115c3      0x1ca ../fir_bsp/\libucosii_bsp.a(ip_reasm.o)
 .debug_abbrev  0x0001178d       0xb7 d:/altera/13.0sp1/nios2eds/bin/gnu/h-i686-mingw32/bin/../lib/gcc/nios2-elf/4.1.2/../../../../nios2-elf/lib\libc.a(lib_a-atexit.o)
 .debug_abbrev  0x00011844      0x176 d:/altera/13.0sp1/nios2eds/bin/gnu/h-i686-mingw32/bin/../lib/gcc/nios2-elf/4.1.2/../../../../nios2-elf/lib\libc.a(lib_a-atoi.o)
 .debug_abbrev  0x000119ba      0x17f d:/altera/13.0sp1/nios2eds/bin/gnu/h-i686-mingw32/bin/../lib/gcc/nios2-elf/4.1.2/../../../../nios2-elf/lib\libc.a(lib_a-calloc.o)
 .debug_abbrev  0x00011b39       0x7c d:/altera/13.0sp1/nios2eds/bin/gnu/h-i686-mingw32/bin/../lib/gcc/nios2-elf/4.1.2/../../../../nios2-elf/lib\libc.a(lib_a-memcmp.o)
 .debug_abbrev  0x00011bb5      0x191 d:/altera/13.0sp1/nios2eds/bin/gnu/h-i686-mingw32/bin/../lib/gcc/nios2-elf/4.1.2/../../../../nios2-elf/lib\libc.a(lib_a-sprintf.o)
 .debug_abbrev  0x00011d46       0x8f d:/altera/13.0sp1/nios2eds/bin/gnu/h-i686-mingw32/bin/../lib/gcc/nios2-elf/4.1.2/../../../../nios2-elf/lib\libc.a(lib_a-strcpy.o)
 .debug_abbrev  0x00011dd5       0x8d d:/altera/13.0sp1/nios2eds/bin/gnu/h-i686-mingw32/bin/../lib/gcc/nios2-elf/4.1.2/../../../../nios2-elf/lib\libc.a(lib_a-strncmp.o)
 .debug_abbrev  0x00011e62       0x9c d:/altera/13.0sp1/nios2eds/bin/gnu/h-i686-mingw32/bin/../lib/gcc/nios2-elf/4.1.2/../../../../nios2-elf/lib\libc.a(lib_a-strncpy.o)
 .debug_abbrev  0x00011efe      0x1c7 d:/altera/13.0sp1/nios2eds/bin/gnu/h-i686-mingw32/bin/../lib/gcc/nios2-elf/4.1.2/../../../../nios2-elf/lib\libc.a(lib_a-strtol.o)
 .debug_abbrev  0x000120c5      0x170 d:/altera/13.0sp1/nios2eds/bin/gnu/h-i686-mingw32/bin/../lib/gcc/nios2-elf/4.1.2/../../../../nios2-elf/lib\libc.a(lib_a-vprintf.o)
 .debug_abbrev  0x00012235      0x1a5 d:/altera/13.0sp1/nios2eds/bin/gnu/h-i686-mingw32/bin/../lib/gcc/nios2-elf/4.1.2/../../../../nios2-elf/lib\libc.a(lib_a-vsprintf.o)
 .debug_abbrev  0x000123da      0x1ae d:/altera/13.0sp1/nios2eds/bin/gnu/h-i686-mingw32/bin/../lib/gcc/nios2-elf/4.1.2/../../../../nios2-elf/lib\libc.a(lib_a-__atexit.o)

.debug_line     0x00000000    0x41f14
 *(.debug_line)
 .debug_line    0x00000000       0x57 ../fir_bsp//obj/HAL/src/crt0.o
 .debug_line    0x00000057      0x341 obj/default/LCD.o
 .debug_line    0x00000398      0x4f1 obj/default/SSS_DE2_115.o
 .debug_line    0x00000889      0x706 obj/default/alt_error_handler.o
 .debug_line    0x00000f8f      0xaa9 obj/default/dm9000a.o
 .debug_line    0x00001a38      0x667 obj/default/iniche_init.o
 .debug_line    0x0000209f      0x406 obj/default/led.o
 .debug_line    0x000024a5      0x7b8 obj/default/network_utilities.o
 .debug_line    0x00002c5d      0x77d obj/default/simple_socket_server.o
 .debug_line    0x000033da       0x24 obj/default/tse_my_system.o
 .debug_line    0x000033fe       0xff d:/altera/13.0sp1/nios2eds/bin/gnu/h-i686-mingw32/bin/../lib/gcc/nios2-elf/4.1.2\libgcc.a(_fixunsdfsi.o)
 .debug_line    0x000034fd      0x430 d:/altera/13.0sp1/nios2eds/bin/gnu/h-i686-mingw32/bin/../lib/gcc/nios2-elf/4.1.2\libgcc.a(_addsub_df.o)
 .debug_line    0x0000392d      0x3e5 d:/altera/13.0sp1/nios2eds/bin/gnu/h-i686-mingw32/bin/../lib/gcc/nios2-elf/4.1.2\libgcc.a(_mul_df.o)
 .debug_line    0x00003d12      0x129 d:/altera/13.0sp1/nios2eds/bin/gnu/h-i686-mingw32/bin/../lib/gcc/nios2-elf/4.1.2\libgcc.a(_ge_df.o)
 .debug_line    0x00003e3b      0x149 d:/altera/13.0sp1/nios2eds/bin/gnu/h-i686-mingw32/bin/../lib/gcc/nios2-elf/4.1.2\libgcc.a(_df_to_si.o)
 .debug_line    0x00003f84       0x94 d:/altera/13.0sp1/nios2eds/bin/gnu/h-i686-mingw32/bin/../lib/gcc/nios2-elf/4.1.2\libgcc.a(_thenan_df.o)
 .debug_line    0x00004018      0x189 d:/altera/13.0sp1/nios2eds/bin/gnu/h-i686-mingw32/bin/../lib/gcc/nios2-elf/4.1.2\libgcc.a(_usi_to_df.o)
 .debug_line    0x000041a1      0x11f d:/altera/13.0sp1/nios2eds/bin/gnu/h-i686-mingw32/bin/../lib/gcc/nios2-elf/4.1.2\libgcc.a(_muldi3.o)
 .debug_line    0x000042c0      0x105 d:/altera/13.0sp1/nios2eds/bin/gnu/h-i686-mingw32/bin/../lib/gcc/nios2-elf/4.1.2\libgcc.a(_clzsi2.o)
 .debug_line    0x000043c5      0x222 d:/altera/13.0sp1/nios2eds/bin/gnu/h-i686-mingw32/bin/../lib/gcc/nios2-elf/4.1.2\libgcc.a(_pack_df.o)
 .debug_line    0x000045e7      0x1e4 d:/altera/13.0sp1/nios2eds/bin/gnu/h-i686-mingw32/bin/../lib/gcc/nios2-elf/4.1.2\libgcc.a(_unpack_df.o)
 .debug_line    0x000047cb      0x187 d:/altera/13.0sp1/nios2eds/bin/gnu/h-i686-mingw32/bin/../lib/gcc/nios2-elf/4.1.2\libgcc.a(_fpcmp_parts_df.o)
 .debug_line    0x00004952       0xaa d:/altera/13.0sp1/nios2eds/bin/gnu/h-i686-mingw32/bin/../lib/gcc/nios2-elf/4.1.2\libgcc.a(_clz.o)
 .debug_line    0x000049fc       0x7e d:/altera/13.0sp1/nios2eds/bin/gnu/h-i686-mingw32/bin/../lib/gcc/nios2-elf/4.1.2/../../../../nios2-elf/lib\libc.a(lib_a-ctype_.o)
 .debug_line    0x00004a7a      0x238 d:/altera/13.0sp1/nios2eds/bin/gnu/h-i686-mingw32/bin/../lib/gcc/nios2-elf/4.1.2/../../../../nios2-elf/lib\libc.a(lib_a-exit.o)
 .debug_line    0x00004cb2      0x284 d:/altera/13.0sp1/nios2eds/bin/gnu/h-i686-mingw32/bin/../lib/gcc/nios2-elf/4.1.2/../../../../nios2-elf/lib\libc.a(lib_a-fprintf.o)
 .debug_line    0x00004f36      0x2d9 d:/altera/13.0sp1/nios2eds/bin/gnu/h-i686-mingw32/bin/../lib/gcc/nios2-elf/4.1.2/../../../../nios2-elf/lib\libc.a(lib_a-fwrite.o)
 .debug_line    0x0000520f      0x2a4 d:/altera/13.0sp1/nios2eds/bin/gnu/h-i686-mingw32/bin/../lib/gcc/nios2-elf/4.1.2/../../../../nios2-elf/lib\libc.a(lib_a-getc.o)
 .debug_line    0x000054b3      0x22d d:/altera/13.0sp1/nios2eds/bin/gnu/h-i686-mingw32/bin/../lib/gcc/nios2-elf/4.1.2/../../../../nios2-elf/lib\libc.a(lib_a-impure.o)
 .debug_line    0x000056e0      0x24b d:/altera/13.0sp1/nios2eds/bin/gnu/h-i686-mingw32/bin/../lib/gcc/nios2-elf/4.1.2/../../../../nios2-elf/lib\libc.a(lib_a-malloc.o)
 .debug_line    0x0000592b      0x80a d:/altera/13.0sp1/nios2eds/bin/gnu/h-i686-mingw32/bin/../lib/gcc/nios2-elf/4.1.2/../../../../nios2-elf/lib\libc.a(lib_a-mallocr.o)
 .debug_line    0x00006135      0x1ac d:/altera/13.0sp1/nios2eds/bin/gnu/h-i686-mingw32/bin/../lib/gcc/nios2-elf/4.1.2/../../../../nios2-elf/lib\libc.a(lib_a-memcpy.o)
 .debug_line    0x000062e1      0x30a d:/altera/13.0sp1/nios2eds/bin/gnu/h-i686-mingw32/bin/../lib/gcc/nios2-elf/4.1.2/../../../../nios2-elf/lib\libc.a(lib_a-memmove.o)
 .debug_line    0x000065eb      0x301 d:/altera/13.0sp1/nios2eds/bin/gnu/h-i686-mingw32/bin/../lib/gcc/nios2-elf/4.1.2/../../../../nios2-elf/lib\libc.a(lib_a-memset.o)
 .debug_line    0x000068ec      0x2a4 d:/altera/13.0sp1/nios2eds/bin/gnu/h-i686-mingw32/bin/../lib/gcc/nios2-elf/4.1.2/../../../../nios2-elf/lib\libc.a(lib_a-perror.o)
 .debug_line    0x00006b90      0x29b d:/altera/13.0sp1/nios2eds/bin/gnu/h-i686-mingw32/bin/../lib/gcc/nios2-elf/4.1.2/../../../../nios2-elf/lib\libc.a(lib_a-printf.o)
 .debug_line    0x00006e2b      0x2c4 d:/altera/13.0sp1/nios2eds/bin/gnu/h-i686-mingw32/bin/../lib/gcc/nios2-elf/4.1.2/../../../../nios2-elf/lib\libc.a(lib_a-putc.o)
 .debug_line    0x000070ef      0x264 d:/altera/13.0sp1/nios2eds/bin/gnu/h-i686-mingw32/bin/../lib/gcc/nios2-elf/4.1.2/../../../../nios2-elf/lib\libc.a(lib_a-putchar.o)
 .debug_line    0x00007353      0x2f7 d:/altera/13.0sp1/nios2eds/bin/gnu/h-i686-mingw32/bin/../lib/gcc/nios2-elf/4.1.2/../../../../nios2-elf/lib\libc.a(lib_a-puts.o)
 .debug_line    0x0000764a      0x28d d:/altera/13.0sp1/nios2eds/bin/gnu/h-i686-mingw32/bin/../lib/gcc/nios2-elf/4.1.2/../../../../nios2-elf/lib\libc.a(lib_a-rget.o)
 .debug_line    0x000078d7      0x299 d:/altera/13.0sp1/nios2eds/bin/gnu/h-i686-mingw32/bin/../lib/gcc/nios2-elf/4.1.2/../../../../nios2-elf/lib\libc.a(lib_a-sbrkr.o)
 .debug_line    0x00007b70      0x2c7 d:/altera/13.0sp1/nios2eds/bin/gnu/h-i686-mingw32/bin/../lib/gcc/nios2-elf/4.1.2/../../../../nios2-elf/lib\libc.a(lib_a-strchr.o)
 .debug_line    0x00007e37      0x4e1 d:/altera/13.0sp1/nios2eds/bin/gnu/h-i686-mingw32/bin/../lib/gcc/nios2-elf/4.1.2/../../../../nios2-elf/lib\libc.a(lib_a-strerror.o)
 .debug_line    0x00008318      0x26d d:/altera/13.0sp1/nios2eds/bin/gnu/h-i686-mingw32/bin/../lib/gcc/nios2-elf/4.1.2/../../../../nios2-elf/lib\libc.a(lib_a-strlen.o)
 .debug_line    0x00008585       0x91 d:/altera/13.0sp1/nios2eds/bin/gnu/h-i686-mingw32/bin/../lib/gcc/nios2-elf/4.1.2/../../../../nios2-elf/lib\libc.a(lib_a-u_strerr.o)
 .debug_line    0x00008616     0x110c d:/altera/13.0sp1/nios2eds/bin/gnu/h-i686-mingw32/bin/../lib/gcc/nios2-elf/4.1.2/../../../../nios2-elf/lib\libc.a(lib_a-vfprintf.o)
 .debug_line    0x00009722      0x350 d:/altera/13.0sp1/nios2eds/bin/gnu/h-i686-mingw32/bin/../lib/gcc/nios2-elf/4.1.2/../../../../nios2-elf/lib\libc.a(lib_a-wbuf.o)
 .debug_line    0x00009a72      0x2f0 d:/altera/13.0sp1/nios2eds/bin/gnu/h-i686-mingw32/bin/../lib/gcc/nios2-elf/4.1.2/../../../../nios2-elf/lib\libc.a(lib_a-wsetup.o)
 .debug_line    0x00009d62      0x367 d:/altera/13.0sp1/nios2eds/bin/gnu/h-i686-mingw32/bin/../lib/gcc/nios2-elf/4.1.2/../../../../nios2-elf/lib\libc.a(lib_a-__call_atexit.o)
 .debug_line    0x0000a0c9     0x12c6 d:/altera/13.0sp1/nios2eds/bin/gnu/h-i686-mingw32/bin/../lib/gcc/nios2-elf/4.1.2/../../../../nios2-elf/lib\libc.a(lib_a-dtoa.o)
 .debug_line    0x0000b38f      0x40d d:/altera/13.0sp1/nios2eds/bin/gnu/h-i686-mingw32/bin/../lib/gcc/nios2-elf/4.1.2/../../../../nios2-elf/lib\libc.a(lib_a-fflush.o)
 .debug_line    0x0000b79c      0x601 d:/altera/13.0sp1/nios2eds/bin/gnu/h-i686-mingw32/bin/../lib/gcc/nios2-elf/4.1.2/../../../../nios2-elf/lib\libc.a(lib_a-findfp.o)
 .debug_line    0x0000bd9d      0x285 d:/altera/13.0sp1/nios2eds/bin/gnu/h-i686-mingw32/bin/../lib/gcc/nios2-elf/4.1.2/../../../../nios2-elf/lib\libc.a(lib_a-fputc.o)
 .debug_line    0x0000c022      0x2c8 d:/altera/13.0sp1/nios2eds/bin/gnu/h-i686-mingw32/bin/../lib/gcc/nios2-elf/4.1.2/../../../../nios2-elf/lib\libc.a(lib_a-fputs.o)
 .debug_line    0x0000c2ea      0x5eb d:/altera/13.0sp1/nios2eds/bin/gnu/h-i686-mingw32/bin/../lib/gcc/nios2-elf/4.1.2/../../../../nios2-elf/lib\libc.a(lib_a-freer.o)
 .debug_line    0x0000c8d5      0x641 d:/altera/13.0sp1/nios2eds/bin/gnu/h-i686-mingw32/bin/../lib/gcc/nios2-elf/4.1.2/../../../../nios2-elf/lib\libc.a(lib_a-fvwrite.o)
 .debug_line    0x0000cf16      0x34a d:/altera/13.0sp1/nios2eds/bin/gnu/h-i686-mingw32/bin/../lib/gcc/nios2-elf/4.1.2/../../../../nios2-elf/lib\libc.a(lib_a-fwalk.o)
 .debug_line    0x0000d260      0x1df d:/altera/13.0sp1/nios2eds/bin/gnu/h-i686-mingw32/bin/../lib/gcc/nios2-elf/4.1.2/../../../../nios2-elf/lib\libc.a(lib_a-int_errno.o)
 .debug_line    0x0000d43f      0x2c8 d:/altera/13.0sp1/nios2eds/bin/gnu/h-i686-mingw32/bin/../lib/gcc/nios2-elf/4.1.2/../../../../nios2-elf/lib\libc.a(lib_a-locale.o)
 .debug_line    0x0000d707      0x3c3 d:/altera/13.0sp1/nios2eds/bin/gnu/h-i686-mingw32/bin/../lib/gcc/nios2-elf/4.1.2/../../../../nios2-elf/lib\libc.a(lib_a-makebuf.o)
 .debug_line    0x0000daca      0x303 d:/altera/13.0sp1/nios2eds/bin/gnu/h-i686-mingw32/bin/../lib/gcc/nios2-elf/4.1.2/../../../../nios2-elf/lib\libc.a(lib_a-memchr.o)
 .debug_line    0x0000ddcd     0x1243 d:/altera/13.0sp1/nios2eds/bin/gnu/h-i686-mingw32/bin/../lib/gcc/nios2-elf/4.1.2/../../../../nios2-elf/lib\libc.a(lib_a-mprec.o)
 .debug_line    0x0000f010      0x58a d:/altera/13.0sp1/nios2eds/bin/gnu/h-i686-mingw32/bin/../lib/gcc/nios2-elf/4.1.2/../../../../nios2-elf/lib\libc.a(lib_a-reallocr.o)
 .debug_line    0x0000f59a      0x3c4 d:/altera/13.0sp1/nios2eds/bin/gnu/h-i686-mingw32/bin/../lib/gcc/nios2-elf/4.1.2/../../../../nios2-elf/lib\libc.a(lib_a-refill.o)
 .debug_line    0x0000f95e      0x222 d:/altera/13.0sp1/nios2eds/bin/gnu/h-i686-mingw32/bin/../lib/gcc/nios2-elf/4.1.2/../../../../nios2-elf/lib\libc.a(lib_a-s_isinfd.o)
 .debug_line    0x0000fb80      0x21a d:/altera/13.0sp1/nios2eds/bin/gnu/h-i686-mingw32/bin/../lib/gcc/nios2-elf/4.1.2/../../../../nios2-elf/lib\libc.a(lib_a-s_isnand.o)
 .debug_line    0x0000fd9a      0x38c d:/altera/13.0sp1/nios2eds/bin/gnu/h-i686-mingw32/bin/../lib/gcc/nios2-elf/4.1.2/../../../../nios2-elf/lib\libc.a(lib_a-stdio.o)
 .debug_line    0x00010126      0x2d5 d:/altera/13.0sp1/nios2eds/bin/gnu/h-i686-mingw32/bin/../lib/gcc/nios2-elf/4.1.2/../../../../nios2-elf/lib\libc.a(lib_a-strcmp.o)
 .debug_line    0x000103fb      0x29a d:/altera/13.0sp1/nios2eds/bin/gnu/h-i686-mingw32/bin/../lib/gcc/nios2-elf/4.1.2/../../../../nios2-elf/lib\libc.a(lib_a-writer.o)
 .debug_line    0x00010695      0x25c d:/altera/13.0sp1/nios2eds/bin/gnu/h-i686-mingw32/bin/../lib/gcc/nios2-elf/4.1.2/../../../../nios2-elf/lib\libc.a(lib_a-callocr.o)
 .debug_line    0x000108f1      0x29a d:/altera/13.0sp1/nios2eds/bin/gnu/h-i686-mingw32/bin/../lib/gcc/nios2-elf/4.1.2/../../../../nios2-elf/lib\libc.a(lib_a-closer.o)
 .debug_line    0x00010b8b      0x2e8 d:/altera/13.0sp1/nios2eds/bin/gnu/h-i686-mingw32/bin/../lib/gcc/nios2-elf/4.1.2/../../../../nios2-elf/lib\libc.a(lib_a-fclose.o)
 .debug_line    0x00010e73      0x264 d:/altera/13.0sp1/nios2eds/bin/gnu/h-i686-mingw32/bin/../lib/gcc/nios2-elf/4.1.2/../../../../nios2-elf/lib\libc.a(lib_a-fstatr.o)
 .debug_line    0x000110d7      0x29b d:/altera/13.0sp1/nios2eds/bin/gnu/h-i686-mingw32/bin/../lib/gcc/nios2-elf/4.1.2/../../../../nios2-elf/lib\libc.a(lib_a-isattyr.o)
 .debug_line    0x00011372      0x29a d:/altera/13.0sp1/nios2eds/bin/gnu/h-i686-mingw32/bin/../lib/gcc/nios2-elf/4.1.2/../../../../nios2-elf/lib\libc.a(lib_a-lseekr.o)
 .debug_line    0x0001160c      0x299 d:/altera/13.0sp1/nios2eds/bin/gnu/h-i686-mingw32/bin/../lib/gcc/nios2-elf/4.1.2/../../../../nios2-elf/lib\libc.a(lib_a-readr.o)
 .debug_line    0x000118a5      0x2f2 d:/altera/13.0sp1/nios2eds/bin/gnu/h-i686-mingw32/bin/../lib/gcc/nios2-elf/4.1.2\libgcc.a(_udivdi3.o)
 .debug_line    0x00011b97      0x37d d:/altera/13.0sp1/nios2eds/bin/gnu/h-i686-mingw32/bin/../lib/gcc/nios2-elf/4.1.2\libgcc.a(_umoddi3.o)
 .debug_line    0x00011f14      0x301 d:/altera/13.0sp1/nios2eds/bin/gnu/h-i686-mingw32/bin/../lib/gcc/nios2-elf/4.1.2\libgcc.a(_div_df.o)
 .debug_line    0x00012215      0x129 d:/altera/13.0sp1/nios2eds/bin/gnu/h-i686-mingw32/bin/../lib/gcc/nios2-elf/4.1.2\libgcc.a(_eq_df.o)
 .debug_line    0x0001233e      0x129 d:/altera/13.0sp1/nios2eds/bin/gnu/h-i686-mingw32/bin/../lib/gcc/nios2-elf/4.1.2\libgcc.a(_ne_df.o)
 .debug_line    0x00012467      0x129 d:/altera/13.0sp1/nios2eds/bin/gnu/h-i686-mingw32/bin/../lib/gcc/nios2-elf/4.1.2\libgcc.a(_gt_df.o)
 .debug_line    0x00012590      0x129 d:/altera/13.0sp1/nios2eds/bin/gnu/h-i686-mingw32/bin/../lib/gcc/nios2-elf/4.1.2\libgcc.a(_lt_df.o)
 .debug_line    0x000126b9      0x175 d:/altera/13.0sp1/nios2eds/bin/gnu/h-i686-mingw32/bin/../lib/gcc/nios2-elf/4.1.2\libgcc.a(_si_to_df.o)
 .debug_line    0x0001282e      0x24f d:/altera/13.0sp1/nios2eds/bin/gnu/h-i686-mingw32/bin/../lib/gcc/nios2-elf/4.1.2\libgcc.a(lib2-divmod.o)
 .debug_line    0x00012a7d      0x276 ../fir_bsp/\libucosii_bsp.a(alt_exit.o)
 .debug_line    0x00012cf3      0x2c8 ../fir_bsp/\libucosii_bsp.a(alt_flash_dev.o)
 .debug_line    0x00012fbb      0x301 ../fir_bsp/\libucosii_bsp.a(alt_fstat.o)
 .debug_line    0x000132bc      0x36d ../fir_bsp/\libucosii_bsp.a(alt_irq_register.o)
 .debug_line    0x00013629       0x72 ../fir_bsp/\libucosii_bsp.a(alt_irq_vars.o)
 .debug_line    0x0001369b      0x302 ../fir_bsp/\libucosii_bsp.a(alt_isatty.o)
 .debug_line    0x0001399d      0x301 ../fir_bsp/\libucosii_bsp.a(alt_lseek.o)
 .debug_line    0x00013c9e      0x349 ../fir_bsp/\libucosii_bsp.a(alt_main.o)
 .debug_line    0x00013fe7      0x261 ../fir_bsp/\libucosii_bsp.a(alt_sbrk.o)
 .debug_line    0x00014248      0x2ad ../fir_bsp/\libucosii_bsp.a(alt_usleep.o)
 .debug_line    0x000144f5      0x2bf ../fir_bsp/\libucosii_bsp.a(alt_env_lock.o)
 .debug_line    0x000147b4      0x37b ../fir_bsp/\libucosii_bsp.a(alt_malloc_lock.o)
 .debug_line    0x00014b2f     0x1663 ../fir_bsp/\libucosii_bsp.a(os_core.o)
 .debug_line    0x00016192      0x388 ../fir_bsp/\libucosii_bsp.a(os_dbg.o)
 .debug_line    0x0001651a     0x11e7 ../fir_bsp/\libucosii_bsp.a(os_flag.o)
 .debug_line    0x00017701      0x78a ../fir_bsp/\libucosii_bsp.a(os_mem.o)
 .debug_line    0x00017e8b      0xe6b ../fir_bsp/\libucosii_bsp.a(os_q.o)
 .debug_line    0x00018cf6      0xa23 ../fir_bsp/\libucosii_bsp.a(os_sem.o)
 .debug_line    0x00019719     0x112c ../fir_bsp/\libucosii_bsp.a(os_task.o)
 .debug_line    0x0001a845      0x52f ../fir_bsp/\libucosii_bsp.a(os_time.o)
 .debug_line    0x0001ad74      0x404 ../fir_bsp/\libucosii_bsp.a(alt_sys_init.o)
 .debug_line    0x0001b178      0x573 ../fir_bsp/\libucosii_bsp.a(altera_avalon_cfi_flash.o)
 .debug_line    0x0001b6eb      0x979 ../fir_bsp/\libucosii_bsp.a(altera_avalon_cfi_flash_table.o)
 .debug_line    0x0001c064      0x6ef ../fir_bsp/\libucosii_bsp.a(altera_avalon_epcs_flash_controller.o)
 .debug_line    0x0001c753      0x319 ../fir_bsp/\libucosii_bsp.a(altera_avalon_jtag_uart_fd.o)
 .debug_line    0x0001ca6c      0x598 ../fir_bsp/\libucosii_bsp.a(altera_avalon_jtag_uart_init.o)
 .debug_line    0x0001d004      0x356 ../fir_bsp/\libucosii_bsp.a(altera_avalon_jtag_uart_ioctl.o)
 .debug_line    0x0001d35a      0x494 ../fir_bsp/\libucosii_bsp.a(altera_avalon_jtag_uart_read.o)
 .debug_line    0x0001d7ee      0x4a2 ../fir_bsp/\libucosii_bsp.a(altera_avalon_jtag_uart_write.o)
 .debug_line    0x0001dc90      0x940 ../fir_bsp/\libucosii_bsp.a(altera_avalon_lcd_16207.o)
 .debug_line    0x0001e5d0      0x2b9 ../fir_bsp/\libucosii_bsp.a(altera_avalon_lcd_16207_fd.o)
 .debug_line    0x0001e889      0x2b3 ../fir_bsp/\libucosii_bsp.a(altera_avalon_timer_sc.o)
 .debug_line    0x0001eb3c      0x2f7 ../fir_bsp/\libucosii_bsp.a(altera_avalon_uart_fd.o)
 .debug_line    0x0001ee33      0x567 ../fir_bsp/\libucosii_bsp.a(altera_avalon_uart_init.o)
 .debug_line    0x0001f39a      0x4b3 ../fir_bsp/\libucosii_bsp.a(altera_avalon_uart_read.o)
 .debug_line    0x0001f84d      0x495 ../fir_bsp/\libucosii_bsp.a(altera_avalon_uart_write.o)
 .debug_line    0x0001fce2      0x408 ../fir_bsp/\libucosii_bsp.a(epcs_commands.o)
 .debug_line    0x000200ea      0x347 ../fir_bsp/\libucosii_bsp.a(alt_iniche_close.o)
 .debug_line    0x00020431      0x3ea ../fir_bsp/\libucosii_bsp.a(alt_iniche_dev.o)
 .debug_line    0x0002081b      0x346 ../fir_bsp/\libucosii_bsp.a(alt_iniche_read.o)
 .debug_line    0x00020b61      0x357 ../fir_bsp/\libucosii_bsp.a(alt_iniche_write.o)
 .debug_line    0x00020eb8      0x7a6 ../fir_bsp/\libucosii_bsp.a(ipnet.o)
 .debug_line    0x0002165e      0x4e7 ../fir_bsp/\libucosii_bsp.a(ipstart.o)
 .debug_line    0x00021b45      0x91c ../fir_bsp/\libucosii_bsp.a(igmp_cmn.o)
 .debug_line    0x00022461      0x6c7 ../fir_bsp/\libucosii_bsp.a(bsdsock.o)
 .debug_line    0x00022b28      0x30a ../fir_bsp/\libucosii_bsp.a(cksum.o)
 .debug_line    0x00022e32      0x7a9 ../fir_bsp/\libucosii_bsp.a(in_utils.o)
 .debug_line    0x000235db      0x64d ../fir_bsp/\libucosii_bsp.a(parseip.o)
 .debug_line    0x00023c28      0x5a8 ../fir_bsp/\libucosii_bsp.a(tk_crnos.o)
 .debug_line    0x000241d0      0x649 ../fir_bsp/\libucosii_bsp.a(pktalloc.o)
 .debug_line    0x00024819      0x3db ../fir_bsp/\libucosii_bsp.a(q.o)
 .debug_line    0x00024bf4       0xaf ../fir_bsp/\libucosii_bsp.a(asm_cksum.o)
 .debug_line    0x00024ca3      0x472 ../fir_bsp/\libucosii_bsp.a(brdutils.o)
 .debug_line    0x00025115      0x4ff ../fir_bsp/\libucosii_bsp.a(osportco.o)
 .debug_line    0x00025614      0x63e ../fir_bsp/\libucosii_bsp.a(targnios.o)
 .debug_line    0x00025c52      0xf23 ../fir_bsp/\libucosii_bsp.a(nptcp.o)
 .debug_line    0x00026b75      0x848 ../fir_bsp/\libucosii_bsp.a(rawsock.o)
 .debug_line    0x000273bd      0xe36 ../fir_bsp/\libucosii_bsp.a(sockcall.o)
 .debug_line    0x000281f3     0x12b8 ../fir_bsp/\libucosii_bsp.a(socket.o)
 .debug_line    0x000294ab      0xbec ../fir_bsp/\libucosii_bsp.a(socket2.o)
 .debug_line    0x0002a097      0x72d ../fir_bsp/\libucosii_bsp.a(soselect.o)
 .debug_line    0x0002a7c4     0x15ee ../fir_bsp/\libucosii_bsp.a(tcp_in.o)
 .debug_line    0x0002bdb2      0xa59 ../fir_bsp/\libucosii_bsp.a(tcp_out.o)
 .debug_line    0x0002c80b      0x7c3 ../fir_bsp/\libucosii_bsp.a(tcp_subr.o)
 .debug_line    0x0002cfce      0x613 ../fir_bsp/\libucosii_bsp.a(tcp_timr.o)
 .debug_line    0x0002d5e1      0x8a2 ../fir_bsp/\libucosii_bsp.a(tcp_usr.o)
 .debug_line    0x0002de83      0x33f ../fir_bsp/\libucosii_bsp.a(tcpport.o)
 .debug_line    0x0002e1c2      0x959 ../fir_bsp/\libucosii_bsp.a(udpsock.o)
 .debug_line    0x0002eb1b      0x2dc ../fir_bsp/\libucosii_bsp.a(alt_alarm_start.o)
 .debug_line    0x0002edf7      0x25c ../fir_bsp/\libucosii_bsp.a(alt_busy_sleep.o)
 .debug_line    0x0002f053      0x2f9 ../fir_bsp/\libucosii_bsp.a(alt_close.o)
 .debug_line    0x0002f34c      0x1e1 ../fir_bsp/\libucosii_bsp.a(alt_dcache_flush.o)
 .debug_line    0x0002f52d      0x2ba ../fir_bsp/\libucosii_bsp.a(alt_dev.o)
 .debug_line    0x0002f7e7      0x25a ../fir_bsp/\libucosii_bsp.a(alt_dev_llist_insert.o)
 .debug_line    0x0002fa41       0x83 ../fir_bsp/\libucosii_bsp.a(alt_do_ctors.o)
 .debug_line    0x0002fac4       0x83 ../fir_bsp/\libucosii_bsp.a(alt_do_dtors.o)
 .debug_line    0x0002fb47      0x1aa ../fir_bsp/\libucosii_bsp.a(alt_errno.o)
 .debug_line    0x0002fcf1      0x2da ../fir_bsp/\libucosii_bsp.a(alt_find_dev.o)
 .debug_line    0x0002ffcb      0x2c8 ../fir_bsp/\libucosii_bsp.a(alt_iic.o)
 .debug_line    0x00030293      0x249 ../fir_bsp/\libucosii_bsp.a(alt_iic_isr_register.o)
 .debug_line    0x000304dc      0x323 ../fir_bsp/\libucosii_bsp.a(alt_io_redirect.o)
 .debug_line    0x000307ff       0x6b ../fir_bsp/\libucosii_bsp.a(alt_irq_entry.o)
 .debug_line    0x0003086a      0x2c4 ../fir_bsp/\libucosii_bsp.a(alt_irq_handler.o)
 .debug_line    0x00030b2e      0x35f ../fir_bsp/\libucosii_bsp.a(alt_open.o)
 .debug_line    0x00030e8d      0x328 ../fir_bsp/\libucosii_bsp.a(alt_read.o)
 .debug_line    0x000311b5      0x279 ../fir_bsp/\libucosii_bsp.a(alt_release_fd.o)
 .debug_line    0x0003142e      0x1b9 ../fir_bsp/\libucosii_bsp.a(alt_remap_cached.o)
 .debug_line    0x000315e7      0x1c3 ../fir_bsp/\libucosii_bsp.a(alt_remap_uncached.o)
 .debug_line    0x000317aa      0x316 ../fir_bsp/\libucosii_bsp.a(alt_tick.o)
 .debug_line    0x00031ac0      0x329 ../fir_bsp/\libucosii_bsp.a(alt_write.o)
 .debug_line    0x00031de9      0x1ce ../fir_bsp/\libucosii_bsp.a(altera_nios2_qsys_irq.o)
 .debug_line    0x00031fb7       0x86 ../fir_bsp/\libucosii_bsp.a(os_cpu_a.o)
 .debug_line    0x0003203d      0x330 ../fir_bsp/\libucosii_bsp.a(os_cpu_c.o)
 .debug_line    0x0003236d      0x445 ../fir_bsp/\libucosii_bsp.a(altera_avalon_cfi_flash_amd.o)
 .debug_line    0x000327b2      0x437 ../fir_bsp/\libucosii_bsp.a(altera_avalon_cfi_flash_intel.o)
 .debug_line    0x00032be9      0x1f2 ../fir_bsp/\libucosii_bsp.a(altera_avalon_spi.o)
 .debug_line    0x00032ddb      0x51f ../fir_bsp/\libucosii_bsp.a(allports.o)
 .debug_line    0x000332fa      0x370 ../fir_bsp/\libucosii_bsp.a(tk_misc.o)
 .debug_line    0x0003366a      0x38f ../fir_bsp/\libucosii_bsp.a(alt_iniche_fcntl.o)
 .debug_line    0x000339f9      0xca2 ../fir_bsp/\libucosii_bsp.a(et_arp.o)
 .debug_line    0x0003469b      0x479 ../fir_bsp/\libucosii_bsp.a(iface.o)
 .debug_line    0x00034b14      0xf95 ../fir_bsp/\libucosii_bsp.a(ip.o)
 .debug_line    0x00035aa9      0x786 ../fir_bsp/\libucosii_bsp.a(ipdemux.o)
 .debug_line    0x0003622f      0x468 ../fir_bsp/\libucosii_bsp.a(ipmc.o)
 .debug_line    0x00036697      0x338 ../fir_bsp/\libucosii_bsp.a(ipport.o)
 .debug_line    0x000369cf      0x5b9 ../fir_bsp/\libucosii_bsp.a(ipraw.o)
 .debug_line    0x00036f88      0x5bb ../fir_bsp/\libucosii_bsp.a(iproute.o)
 .debug_line    0x00037543      0x7f6 ../fir_bsp/\libucosii_bsp.a(udp.o)
 .debug_line    0x00037d39      0x43a ../fir_bsp/\libucosii_bsp.a(igmp.o)
 .debug_line    0x00038173      0x62d ../fir_bsp/\libucosii_bsp.a(igmp2.o)
 .debug_line    0x000387a0      0x711 ../fir_bsp/\libucosii_bsp.a(ipopt.o)
 .debug_line    0x00038eb1      0x5fb ../fir_bsp/\libucosii_bsp.a(u_mctest.o)
 .debug_line    0x000394ac      0x43f ../fir_bsp/\libucosii_bsp.a(dhcsetup.o)
 .debug_line    0x000398eb      0x449 ../fir_bsp/\libucosii_bsp.a(memdev.o)
 .debug_line    0x00039d34      0x43f ../fir_bsp/\libucosii_bsp.a(netmain.o)
 .debug_line    0x0003a173      0x3b9 ../fir_bsp/\libucosii_bsp.a(tcpcksum.o)
 .debug_line    0x0003a52c     0x1069 ../fir_bsp/\libucosii_bsp.a(dhcpclnt.o)
 .debug_line    0x0003b595      0x2ff ../fir_bsp/\libucosii_bsp.a(dhcputil.o)
 .debug_line    0x0003b894      0x46e ../fir_bsp/\libucosii_bsp.a(udp_open.o)
 .debug_line    0x0003bd02      0x76d ../fir_bsp/\libucosii_bsp.a(in_pcb.o)
 .debug_line    0x0003c46f      0xff7 ../fir_bsp/\libucosii_bsp.a(vfsfiles.o)
 .debug_line    0x0003d466      0x2c4 ../fir_bsp/\libucosii_bsp.a(vfsport.o)
 .debug_line    0x0003d72a       0xab ../fir_bsp/\libucosii_bsp.a(alt_exception_entry.o)
 .debug_line    0x0003d7d5      0x358 ../fir_bsp/\libucosii_bsp.a(alt_fcntl.o)
 .debug_line    0x0003db2d      0x2eb ../fir_bsp/\libucosii_bsp.a(alt_find_file.o)
 .debug_line    0x0003de18      0x31b ../fir_bsp/\libucosii_bsp.a(alt_get_fd.o)
 .debug_line    0x0003e133      0x483 ../fir_bsp/\libucosii_bsp.a(timeouts.o)
 .debug_line    0x0003e5b6      0x958 ../fir_bsp/\libucosii_bsp.a(icmp.o)
 .debug_line    0x0003ef0e      0xf7c ../fir_bsp/\libucosii_bsp.a(ip_reasm.o)
 .debug_line    0x0003fe8a      0x200 d:/altera/13.0sp1/nios2eds/bin/gnu/h-i686-mingw32/bin/../lib/gcc/nios2-elf/4.1.2/../../../../nios2-elf/lib\libc.a(lib_a-atexit.o)
 .debug_line    0x0004008a      0x20a d:/altera/13.0sp1/nios2eds/bin/gnu/h-i686-mingw32/bin/../lib/gcc/nios2-elf/4.1.2/../../../../nios2-elf/lib\libc.a(lib_a-atoi.o)
 .debug_line    0x00040294      0x20c d:/altera/13.0sp1/nios2eds/bin/gnu/h-i686-mingw32/bin/../lib/gcc/nios2-elf/4.1.2/../../../../nios2-elf/lib\libc.a(lib_a-calloc.o)
 .debug_line    0x000404a0      0x29f d:/altera/13.0sp1/nios2eds/bin/gnu/h-i686-mingw32/bin/../lib/gcc/nios2-elf/4.1.2/../../../../nios2-elf/lib\libc.a(lib_a-memcmp.o)
 .debug_line    0x0004073f      0x322 d:/altera/13.0sp1/nios2eds/bin/gnu/h-i686-mingw32/bin/../lib/gcc/nios2-elf/4.1.2/../../../../nios2-elf/lib\libc.a(lib_a-sprintf.o)
 .debug_line    0x00040a61      0x287 d:/altera/13.0sp1/nios2eds/bin/gnu/h-i686-mingw32/bin/../lib/gcc/nios2-elf/4.1.2/../../../../nios2-elf/lib\libc.a(lib_a-strcpy.o)
 .debug_line    0x00040ce8      0x2fe d:/altera/13.0sp1/nios2eds/bin/gnu/h-i686-mingw32/bin/../lib/gcc/nios2-elf/4.1.2/../../../../nios2-elf/lib\libc.a(lib_a-strncmp.o)
 .debug_line    0x00040fe6      0x2d0 d:/altera/13.0sp1/nios2eds/bin/gnu/h-i686-mingw32/bin/../lib/gcc/nios2-elf/4.1.2/../../../../nios2-elf/lib\libc.a(lib_a-strncpy.o)
 .debug_line    0x000412b6      0x403 d:/altera/13.0sp1/nios2eds/bin/gnu/h-i686-mingw32/bin/../lib/gcc/nios2-elf/4.1.2/../../../../nios2-elf/lib\libc.a(lib_a-strtol.o)
 .debug_line    0x000416b9      0x26f d:/altera/13.0sp1/nios2eds/bin/gnu/h-i686-mingw32/bin/../lib/gcc/nios2-elf/4.1.2/../../../../nios2-elf/lib\libc.a(lib_a-vprintf.o)
 .debug_line    0x00041928      0x2d9 d:/altera/13.0sp1/nios2eds/bin/gnu/h-i686-mingw32/bin/../lib/gcc/nios2-elf/4.1.2/../../../../nios2-elf/lib\libc.a(lib_a-vsprintf.o)
 .debug_line    0x00041c01      0x313 d:/altera/13.0sp1/nios2eds/bin/gnu/h-i686-mingw32/bin/../lib/gcc/nios2-elf/4.1.2/../../../../nios2-elf/lib\libc.a(lib_a-__atexit.o)

.debug_frame    0x00000000     0x67ac
 *(.debug_frame)
 .debug_frame   0x00000000       0xbc obj/default/LCD.o
 .debug_frame   0x000000bc       0x48 obj/default/SSS_DE2_115.o
 .debug_frame   0x00000104       0x64 obj/default/alt_error_handler.o
 .debug_frame   0x00000168      0x19c obj/default/dm9000a.o
 .debug_frame   0x00000304       0xbc obj/default/iniche_init.o
 .debug_frame   0x000003c0       0x64 obj/default/led.o
 .debug_frame   0x00000424       0xbc obj/default/network_utilities.o
 .debug_frame   0x000004e0       0xfc obj/default/simple_socket_server.o
 .debug_frame   0x000005dc       0x30 d:/altera/13.0sp1/nios2eds/bin/gnu/h-i686-mingw32/bin/../lib/gcc/nios2-elf/4.1.2\libgcc.a(_fixunsdfsi.o)
 .debug_frame   0x0000060c       0x70 d:/altera/13.0sp1/nios2eds/bin/gnu/h-i686-mingw32/bin/../lib/gcc/nios2-elf/4.1.2\libgcc.a(_addsub_df.o)
 .debug_frame   0x0000067c       0x3c d:/altera/13.0sp1/nios2eds/bin/gnu/h-i686-mingw32/bin/../lib/gcc/nios2-elf/4.1.2\libgcc.a(_mul_df.o)
 .debug_frame   0x000006b8       0x2c d:/altera/13.0sp1/nios2eds/bin/gnu/h-i686-mingw32/bin/../lib/gcc/nios2-elf/4.1.2\libgcc.a(_ge_df.o)
 .debug_frame   0x000006e4       0x28 d:/altera/13.0sp1/nios2eds/bin/gnu/h-i686-mingw32/bin/../lib/gcc/nios2-elf/4.1.2\libgcc.a(_df_to_si.o)
 .debug_frame   0x0000070c       0x38 d:/altera/13.0sp1/nios2eds/bin/gnu/h-i686-mingw32/bin/../lib/gcc/nios2-elf/4.1.2\libgcc.a(_usi_to_df.o)
 .debug_frame   0x00000744       0x2c d:/altera/13.0sp1/nios2eds/bin/gnu/h-i686-mingw32/bin/../lib/gcc/nios2-elf/4.1.2\libgcc.a(_muldi3.o)
 .debug_frame   0x00000770       0x20 d:/altera/13.0sp1/nios2eds/bin/gnu/h-i686-mingw32/bin/../lib/gcc/nios2-elf/4.1.2\libgcc.a(_clzsi2.o)
 .debug_frame   0x00000790       0x2c d:/altera/13.0sp1/nios2eds/bin/gnu/h-i686-mingw32/bin/../lib/gcc/nios2-elf/4.1.2\libgcc.a(_pack_df.o)
 .debug_frame   0x000007bc       0x20 d:/altera/13.0sp1/nios2eds/bin/gnu/h-i686-mingw32/bin/../lib/gcc/nios2-elf/4.1.2\libgcc.a(_unpack_df.o)
 .debug_frame   0x000007dc       0x20 d:/altera/13.0sp1/nios2eds/bin/gnu/h-i686-mingw32/bin/../lib/gcc/nios2-elf/4.1.2\libgcc.a(_fpcmp_parts_df.o)
 .debug_frame   0x000007fc       0x28 d:/altera/13.0sp1/nios2eds/bin/gnu/h-i686-mingw32/bin/../lib/gcc/nios2-elf/4.1.2/../../../../nios2-elf/lib\libc.a(lib_a-exit.o)
 .debug_frame   0x00000824       0x40 d:/altera/13.0sp1/nios2eds/bin/gnu/h-i686-mingw32/bin/../lib/gcc/nios2-elf/4.1.2/../../../../nios2-elf/lib\libc.a(lib_a-fprintf.o)
 .debug_frame   0x00000864       0x48 d:/altera/13.0sp1/nios2eds/bin/gnu/h-i686-mingw32/bin/../lib/gcc/nios2-elf/4.1.2/../../../../nios2-elf/lib\libc.a(lib_a-fwrite.o)
 .debug_frame   0x000008ac       0x48 d:/altera/13.0sp1/nios2eds/bin/gnu/h-i686-mingw32/bin/../lib/gcc/nios2-elf/4.1.2/../../../../nios2-elf/lib\libc.a(lib_a-getc.o)
 .debug_frame   0x000008f4       0x30 d:/altera/13.0sp1/nios2eds/bin/gnu/h-i686-mingw32/bin/../lib/gcc/nios2-elf/4.1.2/../../../../nios2-elf/lib\libc.a(lib_a-malloc.o)
 .debug_frame   0x00000924       0x38 d:/altera/13.0sp1/nios2eds/bin/gnu/h-i686-mingw32/bin/../lib/gcc/nios2-elf/4.1.2/../../../../nios2-elf/lib\libc.a(lib_a-mallocr.o)
 .debug_frame   0x0000095c       0x20 d:/altera/13.0sp1/nios2eds/bin/gnu/h-i686-mingw32/bin/../lib/gcc/nios2-elf/4.1.2/../../../../nios2-elf/lib\libc.a(lib_a-memcpy.o)
 .debug_frame   0x0000097c       0x20 d:/altera/13.0sp1/nios2eds/bin/gnu/h-i686-mingw32/bin/../lib/gcc/nios2-elf/4.1.2/../../../../nios2-elf/lib\libc.a(lib_a-memmove.o)
 .debug_frame   0x0000099c       0x20 d:/altera/13.0sp1/nios2eds/bin/gnu/h-i686-mingw32/bin/../lib/gcc/nios2-elf/4.1.2/../../../../nios2-elf/lib\libc.a(lib_a-memset.o)
 .debug_frame   0x000009bc       0x38 d:/altera/13.0sp1/nios2eds/bin/gnu/h-i686-mingw32/bin/../lib/gcc/nios2-elf/4.1.2/../../../../nios2-elf/lib\libc.a(lib_a-perror.o)
 .debug_frame   0x000009f4       0x40 d:/altera/13.0sp1/nios2eds/bin/gnu/h-i686-mingw32/bin/../lib/gcc/nios2-elf/4.1.2/../../../../nios2-elf/lib\libc.a(lib_a-printf.o)
 .debug_frame   0x00000a34       0x4c d:/altera/13.0sp1/nios2eds/bin/gnu/h-i686-mingw32/bin/../lib/gcc/nios2-elf/4.1.2/../../../../nios2-elf/lib\libc.a(lib_a-putc.o)
 .debug_frame   0x00000a80       0x30 d:/altera/13.0sp1/nios2eds/bin/gnu/h-i686-mingw32/bin/../lib/gcc/nios2-elf/4.1.2/../../../../nios2-elf/lib\libc.a(lib_a-putchar.o)
 .debug_frame   0x00000ab0       0x3c d:/altera/13.0sp1/nios2eds/bin/gnu/h-i686-mingw32/bin/../lib/gcc/nios2-elf/4.1.2/../../../../nios2-elf/lib\libc.a(lib_a-puts.o)
 .debug_frame   0x00000aec       0x38 d:/altera/13.0sp1/nios2eds/bin/gnu/h-i686-mingw32/bin/../lib/gcc/nios2-elf/4.1.2/../../../../nios2-elf/lib\libc.a(lib_a-rget.o)
 .debug_frame   0x00000b24       0x2c d:/altera/13.0sp1/nios2eds/bin/gnu/h-i686-mingw32/bin/../lib/gcc/nios2-elf/4.1.2/../../../../nios2-elf/lib\libc.a(lib_a-sbrkr.o)
 .debug_frame   0x00000b50       0x20 d:/altera/13.0sp1/nios2eds/bin/gnu/h-i686-mingw32/bin/../lib/gcc/nios2-elf/4.1.2/../../../../nios2-elf/lib\libc.a(lib_a-strchr.o)
 .debug_frame   0x00000b70       0x28 d:/altera/13.0sp1/nios2eds/bin/gnu/h-i686-mingw32/bin/../lib/gcc/nios2-elf/4.1.2/../../../../nios2-elf/lib\libc.a(lib_a-strerror.o)
 .debug_frame   0x00000b98       0x20 d:/altera/13.0sp1/nios2eds/bin/gnu/h-i686-mingw32/bin/../lib/gcc/nios2-elf/4.1.2/../../../../nios2-elf/lib\libc.a(lib_a-strlen.o)
 .debug_frame   0x00000bb8       0x20 d:/altera/13.0sp1/nios2eds/bin/gnu/h-i686-mingw32/bin/../lib/gcc/nios2-elf/4.1.2/../../../../nios2-elf/lib\libc.a(lib_a-u_strerr.o)
 .debug_frame   0x00000bd8       0x64 d:/altera/13.0sp1/nios2eds/bin/gnu/h-i686-mingw32/bin/../lib/gcc/nios2-elf/4.1.2/../../../../nios2-elf/lib\libc.a(lib_a-vfprintf.o)
 .debug_frame   0x00000c3c       0x3c d:/altera/13.0sp1/nios2eds/bin/gnu/h-i686-mingw32/bin/../lib/gcc/nios2-elf/4.1.2/../../../../nios2-elf/lib\libc.a(lib_a-wbuf.o)
 .debug_frame   0x00000c78       0x2c d:/altera/13.0sp1/nios2eds/bin/gnu/h-i686-mingw32/bin/../lib/gcc/nios2-elf/4.1.2/../../../../nios2-elf/lib\libc.a(lib_a-wsetup.o)
 .debug_frame   0x00000ca4       0x4c d:/altera/13.0sp1/nios2eds/bin/gnu/h-i686-mingw32/bin/../lib/gcc/nios2-elf/4.1.2/../../../../nios2-elf/lib\libc.a(lib_a-__call_atexit.o)
 .debug_frame   0x00000cf0       0x64 d:/altera/13.0sp1/nios2eds/bin/gnu/h-i686-mingw32/bin/../lib/gcc/nios2-elf/4.1.2/../../../../nios2-elf/lib\libc.a(lib_a-dtoa.o)
 .debug_frame   0x00000d54       0x40 d:/altera/13.0sp1/nios2eds/bin/gnu/h-i686-mingw32/bin/../lib/gcc/nios2-elf/4.1.2/../../../../nios2-elf/lib\libc.a(lib_a-fflush.o)
 .debug_frame   0x00000d94      0x118 d:/altera/13.0sp1/nios2eds/bin/gnu/h-i686-mingw32/bin/../lib/gcc/nios2-elf/4.1.2/../../../../nios2-elf/lib\libc.a(lib_a-findfp.o)
 .debug_frame   0x00000eac       0x4c d:/altera/13.0sp1/nios2eds/bin/gnu/h-i686-mingw32/bin/../lib/gcc/nios2-elf/4.1.2/../../../../nios2-elf/lib\libc.a(lib_a-fputc.o)
 .debug_frame   0x00000ef8       0x3c d:/altera/13.0sp1/nios2eds/bin/gnu/h-i686-mingw32/bin/../lib/gcc/nios2-elf/4.1.2/../../../../nios2-elf/lib\libc.a(lib_a-fputs.o)
 .debug_frame   0x00000f34       0x4c d:/altera/13.0sp1/nios2eds/bin/gnu/h-i686-mingw32/bin/../lib/gcc/nios2-elf/4.1.2/../../../../nios2-elf/lib\libc.a(lib_a-freer.o)
 .debug_frame   0x00000f80       0x38 d:/altera/13.0sp1/nios2eds/bin/gnu/h-i686-mingw32/bin/../lib/gcc/nios2-elf/4.1.2/../../../../nios2-elf/lib\libc.a(lib_a-fvwrite.o)
 .debug_frame   0x00000fb8       0x60 d:/altera/13.0sp1/nios2eds/bin/gnu/h-i686-mingw32/bin/../lib/gcc/nios2-elf/4.1.2/../../../../nios2-elf/lib\libc.a(lib_a-fwalk.o)
 .debug_frame   0x00001018       0x70 d:/altera/13.0sp1/nios2eds/bin/gnu/h-i686-mingw32/bin/../lib/gcc/nios2-elf/4.1.2/../../../../nios2-elf/lib\libc.a(lib_a-locale.o)
 .debug_frame   0x00001088       0x2c d:/altera/13.0sp1/nios2eds/bin/gnu/h-i686-mingw32/bin/../lib/gcc/nios2-elf/4.1.2/../../../../nios2-elf/lib\libc.a(lib_a-makebuf.o)
 .debug_frame   0x000010b4       0x20 d:/altera/13.0sp1/nios2eds/bin/gnu/h-i686-mingw32/bin/../lib/gcc/nios2-elf/4.1.2/../../../../nios2-elf/lib\libc.a(lib_a-memchr.o)
 .debug_frame   0x000010d4      0x218 d:/altera/13.0sp1/nios2eds/bin/gnu/h-i686-mingw32/bin/../lib/gcc/nios2-elf/4.1.2/../../../../nios2-elf/lib\libc.a(lib_a-mprec.o)
 .debug_frame   0x000012ec       0x38 d:/altera/13.0sp1/nios2eds/bin/gnu/h-i686-mingw32/bin/../lib/gcc/nios2-elf/4.1.2/../../../../nios2-elf/lib\libc.a(lib_a-reallocr.o)
 .debug_frame   0x00001324       0x3c d:/altera/13.0sp1/nios2eds/bin/gnu/h-i686-mingw32/bin/../lib/gcc/nios2-elf/4.1.2/../../../../nios2-elf/lib\libc.a(lib_a-refill.o)
 .debug_frame   0x00001360       0x20 d:/altera/13.0sp1/nios2eds/bin/gnu/h-i686-mingw32/bin/../lib/gcc/nios2-elf/4.1.2/../../../../nios2-elf/lib\libc.a(lib_a-s_isinfd.o)
 .debug_frame   0x00001380       0x20 d:/altera/13.0sp1/nios2eds/bin/gnu/h-i686-mingw32/bin/../lib/gcc/nios2-elf/4.1.2/../../../../nios2-elf/lib\libc.a(lib_a-s_isnand.o)
 .debug_frame   0x000013a0       0x78 d:/altera/13.0sp1/nios2eds/bin/gnu/h-i686-mingw32/bin/../lib/gcc/nios2-elf/4.1.2/../../../../nios2-elf/lib\libc.a(lib_a-stdio.o)
 .debug_frame   0x00001418       0x20 d:/altera/13.0sp1/nios2eds/bin/gnu/h-i686-mingw32/bin/../lib/gcc/nios2-elf/4.1.2/../../../../nios2-elf/lib\libc.a(lib_a-strcmp.o)
 .debug_frame   0x00001438       0x2c d:/altera/13.0sp1/nios2eds/bin/gnu/h-i686-mingw32/bin/../lib/gcc/nios2-elf/4.1.2/../../../../nios2-elf/lib\libc.a(lib_a-writer.o)
 .debug_frame   0x00001464       0x28 d:/altera/13.0sp1/nios2eds/bin/gnu/h-i686-mingw32/bin/../lib/gcc/nios2-elf/4.1.2/../../../../nios2-elf/lib\libc.a(lib_a-callocr.o)
 .debug_frame   0x0000148c       0x2c d:/altera/13.0sp1/nios2eds/bin/gnu/h-i686-mingw32/bin/../lib/gcc/nios2-elf/4.1.2/../../../../nios2-elf/lib\libc.a(lib_a-closer.o)
 .debug_frame   0x000014b8       0x3c d:/altera/13.0sp1/nios2eds/bin/gnu/h-i686-mingw32/bin/../lib/gcc/nios2-elf/4.1.2/../../../../nios2-elf/lib\libc.a(lib_a-fclose.o)
 .debug_frame   0x000014f4       0x2c d:/altera/13.0sp1/nios2eds/bin/gnu/h-i686-mingw32/bin/../lib/gcc/nios2-elf/4.1.2/../../../../nios2-elf/lib\libc.a(lib_a-fstatr.o)
 .debug_frame   0x00001520       0x2c d:/altera/13.0sp1/nios2eds/bin/gnu/h-i686-mingw32/bin/../lib/gcc/nios2-elf/4.1.2/../../../../nios2-elf/lib\libc.a(lib_a-isattyr.o)
 .debug_frame   0x0000154c       0x2c d:/altera/13.0sp1/nios2eds/bin/gnu/h-i686-mingw32/bin/../lib/gcc/nios2-elf/4.1.2/../../../../nios2-elf/lib\libc.a(lib_a-lseekr.o)
 .debug_frame   0x00001578       0x2c d:/altera/13.0sp1/nios2eds/bin/gnu/h-i686-mingw32/bin/../lib/gcc/nios2-elf/4.1.2/../../../../nios2-elf/lib\libc.a(lib_a-readr.o)
 .debug_frame   0x000015a4       0x38 d:/altera/13.0sp1/nios2eds/bin/gnu/h-i686-mingw32/bin/../lib/gcc/nios2-elf/4.1.2\libgcc.a(_udivdi3.o)
 .debug_frame   0x000015dc       0x38 d:/altera/13.0sp1/nios2eds/bin/gnu/h-i686-mingw32/bin/../lib/gcc/nios2-elf/4.1.2\libgcc.a(_umoddi3.o)
 .debug_frame   0x00001614       0x30 d:/altera/13.0sp1/nios2eds/bin/gnu/h-i686-mingw32/bin/../lib/gcc/nios2-elf/4.1.2\libgcc.a(_div_df.o)
 .debug_frame   0x00001644       0x2c d:/altera/13.0sp1/nios2eds/bin/gnu/h-i686-mingw32/bin/../lib/gcc/nios2-elf/4.1.2\libgcc.a(_eq_df.o)
 .debug_frame   0x00001670       0x2c d:/altera/13.0sp1/nios2eds/bin/gnu/h-i686-mingw32/bin/../lib/gcc/nios2-elf/4.1.2\libgcc.a(_ne_df.o)
 .debug_frame   0x0000169c       0x2c d:/altera/13.0sp1/nios2eds/bin/gnu/h-i686-mingw32/bin/../lib/gcc/nios2-elf/4.1.2\libgcc.a(_gt_df.o)
 .debug_frame   0x000016c8       0x2c d:/altera/13.0sp1/nios2eds/bin/gnu/h-i686-mingw32/bin/../lib/gcc/nios2-elf/4.1.2\libgcc.a(_lt_df.o)
 .debug_frame   0x000016f4       0x30 d:/altera/13.0sp1/nios2eds/bin/gnu/h-i686-mingw32/bin/../lib/gcc/nios2-elf/4.1.2\libgcc.a(_si_to_df.o)
 .debug_frame   0x00001724       0x70 d:/altera/13.0sp1/nios2eds/bin/gnu/h-i686-mingw32/bin/../lib/gcc/nios2-elf/4.1.2\libgcc.a(lib2-divmod.o)
 .debug_frame   0x00001794       0x48 ../fir_bsp/\libucosii_bsp.a(alt_exit.o)
 .debug_frame   0x000017dc       0x48 ../fir_bsp/\libucosii_bsp.a(alt_flash_dev.o)
 .debug_frame   0x00001824       0x48 ../fir_bsp/\libucosii_bsp.a(alt_fstat.o)
 .debug_frame   0x0000186c       0x2c ../fir_bsp/\libucosii_bsp.a(alt_irq_register.o)
 .debug_frame   0x00001898       0x48 ../fir_bsp/\libucosii_bsp.a(alt_isatty.o)
 .debug_frame   0x000018e0       0x48 ../fir_bsp/\libucosii_bsp.a(alt_lseek.o)
 .debug_frame   0x00001928       0x2c ../fir_bsp/\libucosii_bsp.a(alt_main.o)
 .debug_frame   0x00001954       0x2c ../fir_bsp/\libucosii_bsp.a(alt_sbrk.o)
 .debug_frame   0x00001980       0x30 ../fir_bsp/\libucosii_bsp.a(alt_usleep.o)
 .debug_frame   0x000019b0       0x4c ../fir_bsp/\libucosii_bsp.a(alt_env_lock.o)
 .debug_frame   0x000019fc       0x4c ../fir_bsp/\libucosii_bsp.a(alt_malloc_lock.o)
 .debug_frame   0x00001a48      0x3e4 ../fir_bsp/\libucosii_bsp.a(os_core.o)
 .debug_frame   0x00001e2c       0x2c ../fir_bsp/\libucosii_bsp.a(os_dbg.o)
 .debug_frame   0x00001e58      0x180 ../fir_bsp/\libucosii_bsp.a(os_flag.o)
 .debug_frame   0x00001fd8       0xd4 ../fir_bsp/\libucosii_bsp.a(os_mem.o)
 .debug_frame   0x000020ac      0x144 ../fir_bsp/\libucosii_bsp.a(os_q.o)
 .debug_frame   0x000021f0       0xf0 ../fir_bsp/\libucosii_bsp.a(os_sem.o)
 .debug_frame   0x000022e0      0x160 ../fir_bsp/\libucosii_bsp.a(os_task.o)
 .debug_frame   0x00002440       0xa0 ../fir_bsp/\libucosii_bsp.a(os_time.o)
 .debug_frame   0x000024e0       0x64 ../fir_bsp/\libucosii_bsp.a(alt_sys_init.o)
 .debug_frame   0x00002544       0xd4 ../fir_bsp/\libucosii_bsp.a(altera_avalon_cfi_flash.o)
 .debug_frame   0x00002618      0x210 ../fir_bsp/\libucosii_bsp.a(altera_avalon_cfi_flash_table.o)
 .debug_frame   0x00002828      0x128 ../fir_bsp/\libucosii_bsp.a(altera_avalon_epcs_flash_controller.o)
 .debug_frame   0x00002950       0x80 ../fir_bsp/\libucosii_bsp.a(altera_avalon_jtag_uart_fd.o)
 .debug_frame   0x000029d0       0x80 ../fir_bsp/\libucosii_bsp.a(altera_avalon_jtag_uart_init.o)
 .debug_frame   0x00002a50       0x2c ../fir_bsp/\libucosii_bsp.a(altera_avalon_jtag_uart_ioctl.o)
 .debug_frame   0x00002a7c       0x2c ../fir_bsp/\libucosii_bsp.a(altera_avalon_jtag_uart_read.o)
 .debug_frame   0x00002aa8       0x2c ../fir_bsp/\libucosii_bsp.a(altera_avalon_jtag_uart_write.o)
 .debug_frame   0x00002ad4      0x114 ../fir_bsp/\libucosii_bsp.a(altera_avalon_lcd_16207.o)
 .debug_frame   0x00002be8       0x2c ../fir_bsp/\libucosii_bsp.a(altera_avalon_lcd_16207_fd.o)
 .debug_frame   0x00002c14       0x48 ../fir_bsp/\libucosii_bsp.a(altera_avalon_timer_sc.o)
 .debug_frame   0x00002c5c       0x64 ../fir_bsp/\libucosii_bsp.a(altera_avalon_uart_fd.o)
 .debug_frame   0x00002cc0       0x9c ../fir_bsp/\libucosii_bsp.a(altera_avalon_uart_init.o)
 .debug_frame   0x00002d5c       0x48 ../fir_bsp/\libucosii_bsp.a(altera_avalon_uart_read.o)
 .debug_frame   0x00002da4       0x48 ../fir_bsp/\libucosii_bsp.a(altera_avalon_uart_write.o)
 .debug_frame   0x00002dec      0x160 ../fir_bsp/\libucosii_bsp.a(epcs_commands.o)
 .debug_frame   0x00002f4c       0x2c ../fir_bsp/\libucosii_bsp.a(alt_iniche_close.o)
 .debug_frame   0x00002f78       0x2c ../fir_bsp/\libucosii_bsp.a(alt_iniche_dev.o)
 .debug_frame   0x00002fa4       0x2c ../fir_bsp/\libucosii_bsp.a(alt_iniche_read.o)
 .debug_frame   0x00002fd0       0x2c ../fir_bsp/\libucosii_bsp.a(alt_iniche_write.o)
 .debug_frame   0x00002ffc       0xb8 ../fir_bsp/\libucosii_bsp.a(ipnet.o)
 .debug_frame   0x000030b4       0x80 ../fir_bsp/\libucosii_bsp.a(ipstart.o)
 .debug_frame   0x00003134       0xf8 ../fir_bsp/\libucosii_bsp.a(igmp_cmn.o)
 .debug_frame   0x0000322c      0x12c ../fir_bsp/\libucosii_bsp.a(bsdsock.o)
 .debug_frame   0x00003358       0x48 ../fir_bsp/\libucosii_bsp.a(cksum.o)
 .debug_frame   0x000033a0      0x164 ../fir_bsp/\libucosii_bsp.a(in_utils.o)
 .debug_frame   0x00003504      0x10c ../fir_bsp/\libucosii_bsp.a(parseip.o)
 .debug_frame   0x00003610       0xd4 ../fir_bsp/\libucosii_bsp.a(tk_crnos.o)
 .debug_frame   0x000036e4       0xb8 ../fir_bsp/\libucosii_bsp.a(pktalloc.o)
 .debug_frame   0x0000379c       0x64 ../fir_bsp/\libucosii_bsp.a(q.o)
 .debug_frame   0x00003800       0xf0 ../fir_bsp/\libucosii_bsp.a(brdutils.o)
 .debug_frame   0x000038f0       0x9c ../fir_bsp/\libucosii_bsp.a(osportco.o)
 .debug_frame   0x0000398c      0x110 ../fir_bsp/\libucosii_bsp.a(targnios.o)
 .debug_frame   0x00003a9c      0x208 ../fir_bsp/\libucosii_bsp.a(nptcp.o)
 .debug_frame   0x00003ca4       0x68 ../fir_bsp/\libucosii_bsp.a(rawsock.o)
 .debug_frame   0x00003d0c      0x224 ../fir_bsp/\libucosii_bsp.a(sockcall.o)
 .debug_frame   0x00003f30      0x1d4 ../fir_bsp/\libucosii_bsp.a(socket.o)
 .debug_frame   0x00004104      0x294 ../fir_bsp/\libucosii_bsp.a(socket2.o)
 .debug_frame   0x00004398      0x110 ../fir_bsp/\libucosii_bsp.a(soselect.o)
 .debug_frame   0x000044a8       0xd8 ../fir_bsp/\libucosii_bsp.a(tcp_in.o)
 .debug_frame   0x00004580       0x68 ../fir_bsp/\libucosii_bsp.a(tcp_out.o)
 .debug_frame   0x000045e8      0x10c ../fir_bsp/\libucosii_bsp.a(tcp_subr.o)
 .debug_frame   0x000046f4       0x64 ../fir_bsp/\libucosii_bsp.a(tcp_timr.o)
 .debug_frame   0x00004758       0x80 ../fir_bsp/\libucosii_bsp.a(tcp_usr.o)
 .debug_frame   0x000047d8       0x2c ../fir_bsp/\libucosii_bsp.a(tcpport.o)
 .debug_frame   0x00004804       0xbc ../fir_bsp/\libucosii_bsp.a(udpsock.o)
 .debug_frame   0x000048c0       0x2c ../fir_bsp/\libucosii_bsp.a(alt_alarm_start.o)
 .debug_frame   0x000048ec       0x2c ../fir_bsp/\libucosii_bsp.a(alt_busy_sleep.o)
 .debug_frame   0x00004918       0x48 ../fir_bsp/\libucosii_bsp.a(alt_close.o)
 .debug_frame   0x00004960       0x2c ../fir_bsp/\libucosii_bsp.a(alt_dcache_flush.o)
 .debug_frame   0x0000498c       0x2c ../fir_bsp/\libucosii_bsp.a(alt_dev.o)
 .debug_frame   0x000049b8       0x48 ../fir_bsp/\libucosii_bsp.a(alt_dev_llist_insert.o)
 .debug_frame   0x00004a00       0x2c ../fir_bsp/\libucosii_bsp.a(alt_do_ctors.o)
 .debug_frame   0x00004a2c       0x2c ../fir_bsp/\libucosii_bsp.a(alt_do_dtors.o)
 .debug_frame   0x00004a58       0x2c ../fir_bsp/\libucosii_bsp.a(alt_find_dev.o)
 .debug_frame   0x00004a84       0x80 ../fir_bsp/\libucosii_bsp.a(alt_iic.o)
 .debug_frame   0x00004b04       0x2c ../fir_bsp/\libucosii_bsp.a(alt_iic_isr_register.o)
 .debug_frame   0x00004b30       0x48 ../fir_bsp/\libucosii_bsp.a(alt_io_redirect.o)
 .debug_frame   0x00004b78       0x2c ../fir_bsp/\libucosii_bsp.a(alt_irq_handler.o)
 .debug_frame   0x00004ba4       0x64 ../fir_bsp/\libucosii_bsp.a(alt_open.o)
 .debug_frame   0x00004c08       0x48 ../fir_bsp/\libucosii_bsp.a(alt_read.o)
 .debug_frame   0x00004c50       0x2c ../fir_bsp/\libucosii_bsp.a(alt_release_fd.o)
 .debug_frame   0x00004c7c       0x2c ../fir_bsp/\libucosii_bsp.a(alt_remap_cached.o)
 .debug_frame   0x00004ca8       0x2c ../fir_bsp/\libucosii_bsp.a(alt_remap_uncached.o)
 .debug_frame   0x00004cd4       0x48 ../fir_bsp/\libucosii_bsp.a(alt_tick.o)
 .debug_frame   0x00004d1c       0x48 ../fir_bsp/\libucosii_bsp.a(alt_write.o)
 .debug_frame   0x00004d64       0x2c ../fir_bsp/\libucosii_bsp.a(altera_nios2_qsys_irq.o)
 .debug_frame   0x00004d90      0x128 ../fir_bsp/\libucosii_bsp.a(os_cpu_c.o)
 .debug_frame   0x00004eb8       0x80 ../fir_bsp/\libucosii_bsp.a(altera_avalon_cfi_flash_amd.o)
 .debug_frame   0x00004f38       0x80 ../fir_bsp/\libucosii_bsp.a(altera_avalon_cfi_flash_intel.o)
 .debug_frame   0x00004fb8       0x2c ../fir_bsp/\libucosii_bsp.a(altera_avalon_spi.o)
 .debug_frame   0x00004fe4       0xe0 ../fir_bsp/\libucosii_bsp.a(allports.o)
 .debug_frame   0x000050c4       0x48 ../fir_bsp/\libucosii_bsp.a(tk_misc.o)
 .debug_frame   0x0000510c       0x2c ../fir_bsp/\libucosii_bsp.a(alt_iniche_fcntl.o)
 .debug_frame   0x00005138      0x160 ../fir_bsp/\libucosii_bsp.a(et_arp.o)
 .debug_frame   0x00005298       0x80 ../fir_bsp/\libucosii_bsp.a(iface.o)
 .debug_frame   0x00005318      0x160 ../fir_bsp/\libucosii_bsp.a(ip.o)
 .debug_frame   0x00005478       0x68 ../fir_bsp/\libucosii_bsp.a(ipdemux.o)
 .debug_frame   0x000054e0       0x64 ../fir_bsp/\libucosii_bsp.a(ipmc.o)
 .debug_frame   0x00005544       0x64 ../fir_bsp/\libucosii_bsp.a(ipport.o)
 .debug_frame   0x000055a8       0xb8 ../fir_bsp/\libucosii_bsp.a(ipraw.o)
 .debug_frame   0x00005660       0x64 ../fir_bsp/\libucosii_bsp.a(iproute.o)
 .debug_frame   0x000056c4       0xd4 ../fir_bsp/\libucosii_bsp.a(udp.o)
 .debug_frame   0x00005798       0x2c ../fir_bsp/\libucosii_bsp.a(igmp.o)
 .debug_frame   0x000057c4       0x9c ../fir_bsp/\libucosii_bsp.a(igmp2.o)
 .debug_frame   0x00005860       0x84 ../fir_bsp/\libucosii_bsp.a(ipopt.o)
 .debug_frame   0x000058e4       0x4c ../fir_bsp/\libucosii_bsp.a(u_mctest.o)
 .debug_frame   0x00005930       0x48 ../fir_bsp/\libucosii_bsp.a(dhcsetup.o)
 .debug_frame   0x00005978      0x10c ../fir_bsp/\libucosii_bsp.a(memdev.o)
 .debug_frame   0x00005a84       0x64 ../fir_bsp/\libucosii_bsp.a(netmain.o)
 .debug_frame   0x00005ae8       0x2c ../fir_bsp/\libucosii_bsp.a(tcpcksum.o)
 .debug_frame   0x00005b14      0x250 ../fir_bsp/\libucosii_bsp.a(dhcpclnt.o)
 .debug_frame   0x00005d64       0x2c ../fir_bsp/\libucosii_bsp.a(dhcputil.o)
 .debug_frame   0x00005d90       0x48 ../fir_bsp/\libucosii_bsp.a(udp_open.o)
 .debug_frame   0x00005dd8       0xf0 ../fir_bsp/\libucosii_bsp.a(in_pcb.o)
 .debug_frame   0x00005ec8      0x320 ../fir_bsp/\libucosii_bsp.a(vfsfiles.o)
 .debug_frame   0x000061e8       0x2c ../fir_bsp/\libucosii_bsp.a(vfsport.o)
 .debug_frame   0x00006214       0x48 ../fir_bsp/\libucosii_bsp.a(alt_fcntl.o)
 .debug_frame   0x0000625c       0x2c ../fir_bsp/\libucosii_bsp.a(alt_find_file.o)
 .debug_frame   0x00006288       0x2c ../fir_bsp/\libucosii_bsp.a(alt_get_fd.o)
 .debug_frame   0x000062b4       0x88 ../fir_bsp/\libucosii_bsp.a(timeouts.o)
 .debug_frame   0x0000633c       0x84 ../fir_bsp/\libucosii_bsp.a(icmp.o)
 .debug_frame   0x000063c0      0x1d4 ../fir_bsp/\libucosii_bsp.a(ip_reasm.o)
 .debug_frame   0x00006594       0x20 d:/altera/13.0sp1/nios2eds/bin/gnu/h-i686-mingw32/bin/../lib/gcc/nios2-elf/4.1.2/../../../../nios2-elf/lib\libc.a(lib_a-atexit.o)
 .debug_frame   0x000065b4       0x30 d:/altera/13.0sp1/nios2eds/bin/gnu/h-i686-mingw32/bin/../lib/gcc/nios2-elf/4.1.2/../../../../nios2-elf/lib\libc.a(lib_a-atoi.o)
 .debug_frame   0x000065e4       0x20 d:/altera/13.0sp1/nios2eds/bin/gnu/h-i686-mingw32/bin/../lib/gcc/nios2-elf/4.1.2/../../../../nios2-elf/lib\libc.a(lib_a-calloc.o)
 .debug_frame   0x00006604       0x20 d:/altera/13.0sp1/nios2eds/bin/gnu/h-i686-mingw32/bin/../lib/gcc/nios2-elf/4.1.2/../../../../nios2-elf/lib\libc.a(lib_a-memcmp.o)
 .debug_frame   0x00006624       0x40 d:/altera/13.0sp1/nios2eds/bin/gnu/h-i686-mingw32/bin/../lib/gcc/nios2-elf/4.1.2/../../../../nios2-elf/lib\libc.a(lib_a-sprintf.o)
 .debug_frame   0x00006664       0x20 d:/altera/13.0sp1/nios2eds/bin/gnu/h-i686-mingw32/bin/../lib/gcc/nios2-elf/4.1.2/../../../../nios2-elf/lib\libc.a(lib_a-strcpy.o)
 .debug_frame   0x00006684       0x20 d:/altera/13.0sp1/nios2eds/bin/gnu/h-i686-mingw32/bin/../lib/gcc/nios2-elf/4.1.2/../../../../nios2-elf/lib\libc.a(lib_a-strncmp.o)
 .debug_frame   0x000066a4       0x20 d:/altera/13.0sp1/nios2eds/bin/gnu/h-i686-mingw32/bin/../lib/gcc/nios2-elf/4.1.2/../../../../nios2-elf/lib\libc.a(lib_a-strncpy.o)
 .debug_frame   0x000066c4       0x4c d:/altera/13.0sp1/nios2eds/bin/gnu/h-i686-mingw32/bin/../lib/gcc/nios2-elf/4.1.2/../../../../nios2-elf/lib\libc.a(lib_a-strtol.o)
 .debug_frame   0x00006710       0x30 d:/altera/13.0sp1/nios2eds/bin/gnu/h-i686-mingw32/bin/../lib/gcc/nios2-elf/4.1.2/../../../../nios2-elf/lib\libc.a(lib_a-vprintf.o)
 .debug_frame   0x00006740       0x38 d:/altera/13.0sp1/nios2eds/bin/gnu/h-i686-mingw32/bin/../lib/gcc/nios2-elf/4.1.2/../../../../nios2-elf/lib\libc.a(lib_a-vsprintf.o)
 .debug_frame   0x00006778       0x34 d:/altera/13.0sp1/nios2eds/bin/gnu/h-i686-mingw32/bin/../lib/gcc/nios2-elf/4.1.2/../../../../nios2-elf/lib\libc.a(lib_a-__atexit.o)

.debug_str      0x00000000     0x3622
 *(.debug_str)
 .debug_str     0x00000000       0x12 obj/default/LCD.o
 .debug_str     0x00000012       0x3f obj/default/SSS_DE2_115.o
 .debug_str     0x00000051       0x4e obj/default/alt_error_handler.o
 .debug_str     0x0000009f       0x33 obj/default/dm9000a.o
 .debug_str     0x000000d2       0x1d obj/default/iniche_init.o
 .debug_str     0x000000ef       0x2b obj/default/led.o
 .debug_str     0x0000011a       0x52 obj/default/network_utilities.o
 .debug_str     0x0000016c       0x2c obj/default/simple_socket_server.o
 .debug_str     0x00000198      0x125 d:/altera/13.0sp1/nios2eds/bin/gnu/h-i686-mingw32/bin/../lib/gcc/nios2-elf/4.1.2\libgcc.a(_fixunsdfsi.o)
                                0x16b (size before relaxing)
 .debug_str     0x000002bd      0x138 d:/altera/13.0sp1/nios2eds/bin/gnu/h-i686-mingw32/bin/../lib/gcc/nios2-elf/4.1.2\libgcc.a(_addsub_df.o)
                                0x26f (size before relaxing)
 .debug_str     0x000003f5       0x45 d:/altera/13.0sp1/nios2eds/bin/gnu/h-i686-mingw32/bin/../lib/gcc/nios2-elf/4.1.2\libgcc.a(_mul_df.o)
                                0x241 (size before relaxing)
 .debug_str     0x0000043a        0x8 d:/altera/13.0sp1/nios2eds/bin/gnu/h-i686-mingw32/bin/../lib/gcc/nios2-elf/4.1.2\libgcc.a(_ge_df.o)
                                0x1fe (size before relaxing)
 .debug_str     0x00000442        0xa d:/altera/13.0sp1/nios2eds/bin/gnu/h-i686-mingw32/bin/../lib/gcc/nios2-elf/4.1.2\libgcc.a(_df_to_si.o)
                                0x207 (size before relaxing)
 .debug_str     0x00000000      0x1a3 d:/altera/13.0sp1/nios2eds/bin/gnu/h-i686-mingw32/bin/../lib/gcc/nios2-elf/4.1.2\libgcc.a(_thenan_df.o)
 .debug_str     0x0000044c       0x1b d:/altera/13.0sp1/nios2eds/bin/gnu/h-i686-mingw32/bin/../lib/gcc/nios2-elf/4.1.2\libgcc.a(_usi_to_df.o)
                                0x1da (size before relaxing)
 .debug_str     0x00000467       0x42 d:/altera/13.0sp1/nios2eds/bin/gnu/h-i686-mingw32/bin/../lib/gcc/nios2-elf/4.1.2\libgcc.a(_muldi3.o)
                                0x1ac (size before relaxing)
 .debug_str     0x000004a9       0x20 d:/altera/13.0sp1/nios2eds/bin/gnu/h-i686-mingw32/bin/../lib/gcc/nios2-elf/4.1.2\libgcc.a(_clzsi2.o)
                                0x17e (size before relaxing)
 .debug_str     0x000004c9       0x10 d:/altera/13.0sp1/nios2eds/bin/gnu/h-i686-mingw32/bin/../lib/gcc/nios2-elf/4.1.2\libgcc.a(_pack_df.o)
                                0x206 (size before relaxing)
 .debug_str     0x000004d9        0xb d:/altera/13.0sp1/nios2eds/bin/gnu/h-i686-mingw32/bin/../lib/gcc/nios2-elf/4.1.2\libgcc.a(_unpack_df.o)
                                0x1e8 (size before relaxing)
 .debug_str     0x000004e4       0x10 d:/altera/13.0sp1/nios2eds/bin/gnu/h-i686-mingw32/bin/../lib/gcc/nios2-elf/4.1.2\libgcc.a(_fpcmp_parts_df.o)
                                0x1c6 (size before relaxing)
 .debug_str     0x00000000      0x161 d:/altera/13.0sp1/nios2eds/bin/gnu/h-i686-mingw32/bin/../lib/gcc/nios2-elf/4.1.2\libgcc.a(_clz.o)
 .debug_str     0x000004f4       0xe2 d:/altera/13.0sp1/nios2eds/bin/gnu/h-i686-mingw32/bin/../lib/gcc/nios2-elf/4.1.2/../../../../nios2-elf/lib\libc.a(lib_a-ctype_.o)
                                0x105 (size before relaxing)
 .debug_str     0x000005d6      0x43e d:/altera/13.0sp1/nios2eds/bin/gnu/h-i686-mingw32/bin/../lib/gcc/nios2-elf/4.1.2/../../../../nios2-elf/lib\libc.a(lib_a-exit.o)
                                0x50c (size before relaxing)
 .debug_str     0x00000a14       0xe8 d:/altera/13.0sp1/nios2eds/bin/gnu/h-i686-mingw32/bin/../lib/gcc/nios2-elf/4.1.2/../../../../nios2-elf/lib\libc.a(lib_a-fprintf.o)
                                0x51f (size before relaxing)
 .debug_str     0x00000afc       0x87 d:/altera/13.0sp1/nios2eds/bin/gnu/h-i686-mingw32/bin/../lib/gcc/nios2-elf/4.1.2/../../../../nios2-elf/lib\libc.a(lib_a-fwrite.o)
                                0x55f (size before relaxing)
 .debug_str     0x00000b83       0x45 d:/altera/13.0sp1/nios2eds/bin/gnu/h-i686-mingw32/bin/../lib/gcc/nios2-elf/4.1.2/../../../../nios2-elf/lib\libc.a(lib_a-getc.o)
                                0x512 (size before relaxing)
 .debug_str     0x00000bc8       0xd1 d:/altera/13.0sp1/nios2eds/bin/gnu/h-i686-mingw32/bin/../lib/gcc/nios2-elf/4.1.2/../../../../nios2-elf/lib\libc.a(lib_a-impure.o)
                                0x51a (size before relaxing)
 .debug_str     0x00000c99       0x47 d:/altera/13.0sp1/nios2eds/bin/gnu/h-i686-mingw32/bin/../lib/gcc/nios2-elf/4.1.2/../../../../nios2-elf/lib\libc.a(lib_a-malloc.o)
                                0x51c (size before relaxing)
 .debug_str     0x00000ce0      0x208 d:/altera/13.0sp1/nios2eds/bin/gnu/h-i686-mingw32/bin/../lib/gcc/nios2-elf/4.1.2/../../../../nios2-elf/lib\libc.a(lib_a-mallocr.o)
                                0x6f1 (size before relaxing)
 .debug_str     0x00000ee8       0xf5 d:/altera/13.0sp1/nios2eds/bin/gnu/h-i686-mingw32/bin/../lib/gcc/nios2-elf/4.1.2/../../../../nios2-elf/lib\libc.a(lib_a-memcpy.o)
                                0x128 (size before relaxing)
 .debug_str     0x00000fdd       0x5d d:/altera/13.0sp1/nios2eds/bin/gnu/h-i686-mingw32/bin/../lib/gcc/nios2-elf/4.1.2/../../../../nios2-elf/lib\libc.a(lib_a-memmove.o)
                                0x19d (size before relaxing)
 .debug_str     0x0000103a       0x56 d:/altera/13.0sp1/nios2eds/bin/gnu/h-i686-mingw32/bin/../lib/gcc/nios2-elf/4.1.2/../../../../nios2-elf/lib\libc.a(lib_a-memset.o)
                                0x17e (size before relaxing)
 .debug_str     0x00001090       0x4b d:/altera/13.0sp1/nios2eds/bin/gnu/h-i686-mingw32/bin/../lib/gcc/nios2-elf/4.1.2/../../../../nios2-elf/lib\libc.a(lib_a-perror.o)
                                0x512 (size before relaxing)
 .debug_str     0x000010db       0x44 d:/altera/13.0sp1/nios2eds/bin/gnu/h-i686-mingw32/bin/../lib/gcc/nios2-elf/4.1.2/../../../../nios2-elf/lib\libc.a(lib_a-printf.o)
                                0x523 (size before relaxing)
 .debug_str     0x0000111f       0x40 d:/altera/13.0sp1/nios2eds/bin/gnu/h-i686-mingw32/bin/../lib/gcc/nios2-elf/4.1.2/../../../../nios2-elf/lib\libc.a(lib_a-putc.o)
                                0x512 (size before relaxing)
 .debug_str     0x0000115f       0x4e d:/altera/13.0sp1/nios2eds/bin/gnu/h-i686-mingw32/bin/../lib/gcc/nios2-elf/4.1.2/../../../../nios2-elf/lib\libc.a(lib_a-putchar.o)
                                0x50f (size before relaxing)
 .debug_str     0x000011ad       0x40 d:/altera/13.0sp1/nios2eds/bin/gnu/h-i686-mingw32/bin/../lib/gcc/nios2-elf/4.1.2/../../../../nios2-elf/lib\libc.a(lib_a-puts.o)
                                0x549 (size before relaxing)
 .debug_str     0x000011ed       0x4a d:/altera/13.0sp1/nios2eds/bin/gnu/h-i686-mingw32/bin/../lib/gcc/nios2-elf/4.1.2/../../../../nios2-elf/lib\libc.a(lib_a-rget.o)
                                0x510 (size before relaxing)
 .debug_str     0x00001237       0x50 d:/altera/13.0sp1/nios2eds/bin/gnu/h-i686-mingw32/bin/../lib/gcc/nios2-elf/4.1.2/../../../../nios2-elf/lib\libc.a(lib_a-sbrkr.o)
                                0x50b (size before relaxing)
 .debug_str     0x00001287       0x47 d:/altera/13.0sp1/nios2eds/bin/gnu/h-i686-mingw32/bin/../lib/gcc/nios2-elf/4.1.2/../../../../nios2-elf/lib\libc.a(lib_a-strchr.o)
                                0x175 (size before relaxing)
 .debug_str     0x000012ce       0x44 d:/altera/13.0sp1/nios2eds/bin/gnu/h-i686-mingw32/bin/../lib/gcc/nios2-elf/4.1.2/../../../../nios2-elf/lib\libc.a(lib_a-strerror.o)
                                0x174 (size before relaxing)
 .debug_str     0x00001312       0x42 d:/altera/13.0sp1/nios2eds/bin/gnu/h-i686-mingw32/bin/../lib/gcc/nios2-elf/4.1.2/../../../../nios2-elf/lib\libc.a(lib_a-strlen.o)
                                0x17d (size before relaxing)
 .debug_str     0x00001354       0x4c d:/altera/13.0sp1/nios2eds/bin/gnu/h-i686-mingw32/bin/../lib/gcc/nios2-elf/4.1.2/../../../../nios2-elf/lib\libc.a(lib_a-u_strerr.o)
                                 0xf0 (size before relaxing)
 .debug_str     0x000013a0      0x178 d:/altera/13.0sp1/nios2eds/bin/gnu/h-i686-mingw32/bin/../lib/gcc/nios2-elf/4.1.2/../../../../nios2-elf/lib\libc.a(lib_a-vfprintf.o)
                                0x6f8 (size before relaxing)
 .debug_str     0x00001518       0x4a d:/altera/13.0sp1/nios2eds/bin/gnu/h-i686-mingw32/bin/../lib/gcc/nios2-elf/4.1.2/../../../../nios2-elf/lib\libc.a(lib_a-wbuf.o)
                                0x510 (size before relaxing)
 .debug_str     0x00001562       0x46 d:/altera/13.0sp1/nios2eds/bin/gnu/h-i686-mingw32/bin/../lib/gcc/nios2-elf/4.1.2/../../../../nios2-elf/lib\libc.a(lib_a-wsetup.o)
                                0x50c (size before relaxing)
 .debug_str     0x000015a8       0x7b d:/altera/13.0sp1/nios2eds/bin/gnu/h-i686-mingw32/bin/../lib/gcc/nios2-elf/4.1.2/../../../../nios2-elf/lib\libc.a(lib_a-__call_atexit.o)
                                0x54e (size before relaxing)
 .debug_str     0x00001623      0x102 d:/altera/13.0sp1/nios2eds/bin/gnu/h-i686-mingw32/bin/../lib/gcc/nios2-elf/4.1.2/../../../../nios2-elf/lib\libc.a(lib_a-dtoa.o)
                                0x601 (size before relaxing)
 .debug_str     0x00001725       0x52 d:/altera/13.0sp1/nios2eds/bin/gnu/h-i686-mingw32/bin/../lib/gcc/nios2-elf/4.1.2/../../../../nios2-elf/lib\libc.a(lib_a-fflush.o)
                                0x532 (size before relaxing)
 .debug_str     0x00001777      0x102 d:/altera/13.0sp1/nios2eds/bin/gnu/h-i686-mingw32/bin/../lib/gcc/nios2-elf/4.1.2/../../../../nios2-elf/lib\libc.a(lib_a-findfp.o)
                                0x5f4 (size before relaxing)
 .debug_str     0x00001879       0x48 d:/altera/13.0sp1/nios2eds/bin/gnu/h-i686-mingw32/bin/../lib/gcc/nios2-elf/4.1.2/../../../../nios2-elf/lib\libc.a(lib_a-fputc.o)
                                0x51a (size before relaxing)
 .debug_str     0x000018c1       0x48 d:/altera/13.0sp1/nios2eds/bin/gnu/h-i686-mingw32/bin/../lib/gcc/nios2-elf/4.1.2/../../../../nios2-elf/lib\libc.a(lib_a-fputs.o)
                                0x558 (size before relaxing)
 .debug_str     0x00001909       0x3c d:/altera/13.0sp1/nios2eds/bin/gnu/h-i686-mingw32/bin/../lib/gcc/nios2-elf/4.1.2/../../../../nios2-elf/lib\libc.a(lib_a-freer.o)
                                0x643 (size before relaxing)
 .debug_str     0x00001945       0x66 d:/altera/13.0sp1/nios2eds/bin/gnu/h-i686-mingw32/bin/../lib/gcc/nios2-elf/4.1.2/../../../../nios2-elf/lib\libc.a(lib_a-fvwrite.o)
                                0x563 (size before relaxing)
 .debug_str     0x000019ab       0x5e d:/altera/13.0sp1/nios2eds/bin/gnu/h-i686-mingw32/bin/../lib/gcc/nios2-elf/4.1.2/../../../../nios2-elf/lib\libc.a(lib_a-fwalk.o)
                                0x535 (size before relaxing)
 .debug_str     0x00001a09       0x3d d:/altera/13.0sp1/nios2eds/bin/gnu/h-i686-mingw32/bin/../lib/gcc/nios2-elf/4.1.2/../../../../nios2-elf/lib\libc.a(lib_a-int_errno.o)
                                0x163 (size before relaxing)
 .debug_str     0x00001a46      0x225 d:/altera/13.0sp1/nios2eds/bin/gnu/h-i686-mingw32/bin/../lib/gcc/nios2-elf/4.1.2/../../../../nios2-elf/lib\libc.a(lib_a-locale.o)
                                0x6a9 (size before relaxing)
 .debug_str     0x00001c6b      0x123 d:/altera/13.0sp1/nios2eds/bin/gnu/h-i686-mingw32/bin/../lib/gcc/nios2-elf/4.1.2/../../../../nios2-elf/lib\libc.a(lib_a-makebuf.o)
                                0x606 (size before relaxing)
 .debug_str     0x00001d8e       0x47 d:/altera/13.0sp1/nios2eds/bin/gnu/h-i686-mingw32/bin/../lib/gcc/nios2-elf/4.1.2/../../../../nios2-elf/lib\libc.a(lib_a-memchr.o)
                                0x18b (size before relaxing)
 .debug_str     0x00001dd5       0xf8 d:/altera/13.0sp1/nios2eds/bin/gnu/h-i686-mingw32/bin/../lib/gcc/nios2-elf/4.1.2/../../../../nios2-elf/lib\libc.a(lib_a-mprec.o)
                                0x60e (size before relaxing)
 .debug_str     0x00001ecd       0x59 d:/altera/13.0sp1/nios2eds/bin/gnu/h-i686-mingw32/bin/../lib/gcc/nios2-elf/4.1.2/../../../../nios2-elf/lib\libc.a(lib_a-reallocr.o)
                                0x5c3 (size before relaxing)
 .debug_str     0x00001f26       0x4d d:/altera/13.0sp1/nios2eds/bin/gnu/h-i686-mingw32/bin/../lib/gcc/nios2-elf/4.1.2/../../../../nios2-elf/lib\libc.a(lib_a-refill.o)
                                0x51a (size before relaxing)
 .debug_str     0x00001f73       0xdc d:/altera/13.0sp1/nios2eds/bin/gnu/h-i686-mingw32/bin/../lib/gcc/nios2-elf/4.1.2/../../../../nios2-elf/lib\libc.a(lib_a-s_isinfd.o)
                                0x18a (size before relaxing)
 .debug_str     0x0000204f       0x46 d:/altera/13.0sp1/nios2eds/bin/gnu/h-i686-mingw32/bin/../lib/gcc/nios2-elf/4.1.2/../../../../nios2-elf/lib\libc.a(lib_a-s_isnand.o)
                                0x18a (size before relaxing)
 .debug_str     0x00002095       0x62 d:/altera/13.0sp1/nios2eds/bin/gnu/h-i686-mingw32/bin/../lib/gcc/nios2-elf/4.1.2/../../../../nios2-elf/lib\libc.a(lib_a-stdio.o)
                                0x531 (size before relaxing)
 .debug_str     0x000020f7       0x42 d:/altera/13.0sp1/nios2eds/bin/gnu/h-i686-mingw32/bin/../lib/gcc/nios2-elf/4.1.2/../../../../nios2-elf/lib\libc.a(lib_a-strcmp.o)
                                0x163 (size before relaxing)
 .debug_str     0x00002139       0x4c d:/altera/13.0sp1/nios2eds/bin/gnu/h-i686-mingw32/bin/../lib/gcc/nios2-elf/4.1.2/../../../../nios2-elf/lib\libc.a(lib_a-writer.o)
                                0x50e (size before relaxing)
 .debug_str     0x00002185       0x19 d:/altera/13.0sp1/nios2eds/bin/gnu/h-i686-mingw32/bin/../lib/gcc/nios2-elf/4.1.2/../../../../nios2-elf/lib\libc.a(lib_a-callocr.o)
                                0x542 (size before relaxing)
 .debug_str     0x0000219e       0x43 d:/altera/13.0sp1/nios2eds/bin/gnu/h-i686-mingw32/bin/../lib/gcc/nios2-elf/4.1.2/../../../../nios2-elf/lib\libc.a(lib_a-closer.o)
                                0x4fe (size before relaxing)
 .debug_str     0x000021e1       0x4b d:/altera/13.0sp1/nios2eds/bin/gnu/h-i686-mingw32/bin/../lib/gcc/nios2-elf/4.1.2/../../../../nios2-elf/lib\libc.a(lib_a-fclose.o)
                                0x516 (size before relaxing)
 .debug_str     0x0000222c       0x49 d:/altera/13.0sp1/nios2eds/bin/gnu/h-i686-mingw32/bin/../lib/gcc/nios2-elf/4.1.2/../../../../nios2-elf/lib\libc.a(lib_a-fstatr.o)
                                0x5f1 (size before relaxing)
 .debug_str     0x00002275       0x45 d:/altera/13.0sp1/nios2eds/bin/gnu/h-i686-mingw32/bin/../lib/gcc/nios2-elf/4.1.2/../../../../nios2-elf/lib\libc.a(lib_a-isattyr.o)
                                0x500 (size before relaxing)
 .debug_str     0x000022ba       0x43 d:/altera/13.0sp1/nios2eds/bin/gnu/h-i686-mingw32/bin/../lib/gcc/nios2-elf/4.1.2/../../../../nios2-elf/lib\libc.a(lib_a-lseekr.o)
                                0x50c (size before relaxing)
 .debug_str     0x000022fd       0x41 d:/altera/13.0sp1/nios2eds/bin/gnu/h-i686-mingw32/bin/../lib/gcc/nios2-elf/4.1.2/../../../../nios2-elf/lib\libc.a(lib_a-readr.o)
                                0x50c (size before relaxing)
 .debug_str     0x0000233e       0x35 d:/altera/13.0sp1/nios2eds/bin/gnu/h-i686-mingw32/bin/../lib/gcc/nios2-elf/4.1.2\libgcc.a(_udivdi3.o)
                                0x1f7 (size before relaxing)
 .debug_str     0x00002373        0xa d:/altera/13.0sp1/nios2eds/bin/gnu/h-i686-mingw32/bin/../lib/gcc/nios2-elf/4.1.2\libgcc.a(_umoddi3.o)
                                0x1f7 (size before relaxing)
 .debug_str     0x0000237d       0x35 d:/altera/13.0sp1/nios2eds/bin/gnu/h-i686-mingw32/bin/../lib/gcc/nios2-elf/4.1.2\libgcc.a(_div_df.o)
                                0x231 (size before relaxing)
 .debug_str     0x000023b2        0x8 d:/altera/13.0sp1/nios2eds/bin/gnu/h-i686-mingw32/bin/../lib/gcc/nios2-elf/4.1.2\libgcc.a(_eq_df.o)
                                0x1fe (size before relaxing)
 .debug_str     0x000023ba        0x8 d:/altera/13.0sp1/nios2eds/bin/gnu/h-i686-mingw32/bin/../lib/gcc/nios2-elf/4.1.2\libgcc.a(_ne_df.o)
                                0x1fe (size before relaxing)
 .debug_str     0x000023c2        0x8 d:/altera/13.0sp1/nios2eds/bin/gnu/h-i686-mingw32/bin/../lib/gcc/nios2-elf/4.1.2\libgcc.a(_gt_df.o)
                                0x1fe (size before relaxing)
 .debug_str     0x000023ca        0x8 d:/altera/13.0sp1/nios2eds/bin/gnu/h-i686-mingw32/bin/../lib/gcc/nios2-elf/4.1.2\libgcc.a(_lt_df.o)
                                0x1fe (size before relaxing)
 .debug_str     0x000023d2       0x11 d:/altera/13.0sp1/nios2eds/bin/gnu/h-i686-mingw32/bin/../lib/gcc/nios2-elf/4.1.2\libgcc.a(_si_to_df.o)
                                0x1de (size before relaxing)
 .debug_str     0x000023e3       0x76 d:/altera/13.0sp1/nios2eds/bin/gnu/h-i686-mingw32/bin/../lib/gcc/nios2-elf/4.1.2\libgcc.a(lib2-divmod.o)
                                0x1b4 (size before relaxing)
 .debug_str     0x00002459       0x1c ../fir_bsp/\libucosii_bsp.a(alt_exit.o)
 .debug_str     0x00002475       0x2d ../fir_bsp/\libucosii_bsp.a(alt_flash_dev.o)
 .debug_str     0x000024a2       0x12 ../fir_bsp/\libucosii_bsp.a(alt_fstat.o)
 .debug_str     0x000024b4       0x21 ../fir_bsp/\libucosii_bsp.a(alt_irq_register.o)
 .debug_str     0x000024d5       0x12 ../fir_bsp/\libucosii_bsp.a(alt_isatty.o)
 .debug_str     0x000024e7       0x12 ../fir_bsp/\libucosii_bsp.a(alt_lseek.o)
 .debug_str     0x000024f9       0x12 ../fir_bsp/\libucosii_bsp.a(alt_main.o)
 .debug_str     0x0000250b       0x1a ../fir_bsp/\libucosii_bsp.a(alt_sbrk.o)
 .debug_str     0x00002525       0x12 ../fir_bsp/\libucosii_bsp.a(alt_usleep.o)
 .debug_str     0x00002537       0x36 ../fir_bsp/\libucosii_bsp.a(alt_env_lock.o)
 .debug_str     0x0000256d       0x36 ../fir_bsp/\libucosii_bsp.a(alt_malloc_lock.o)
 .debug_str     0x000025a3       0x46 ../fir_bsp/\libucosii_bsp.a(os_core.o)
 .debug_str     0x000025e9       0x2b ../fir_bsp/\libucosii_bsp.a(os_dbg.o)
 .debug_str     0x00002614       0x4e ../fir_bsp/\libucosii_bsp.a(os_flag.o)
 .debug_str     0x00002662       0x2c ../fir_bsp/\libucosii_bsp.a(os_mem.o)
 .debug_str     0x0000268e       0x36 ../fir_bsp/\libucosii_bsp.a(os_q.o)
 .debug_str     0x000026c4       0x36 ../fir_bsp/\libucosii_bsp.a(os_sem.o)
 .debug_str     0x000026fa       0x23 ../fir_bsp/\libucosii_bsp.a(os_task.o)
 .debug_str     0x0000271d       0x1f ../fir_bsp/\libucosii_bsp.a(os_time.o)
 .debug_str     0x0000273c       0x67 ../fir_bsp/\libucosii_bsp.a(alt_sys_init.o)
 .debug_str     0x000027a3       0x82 ../fir_bsp/\libucosii_bsp.a(altera_avalon_cfi_flash.o)
 .debug_str     0x00002825       0x6d ../fir_bsp/\libucosii_bsp.a(altera_avalon_cfi_flash_table.o)
 .debug_str     0x00002892       0x90 ../fir_bsp/\libucosii_bsp.a(altera_avalon_epcs_flash_controller.o)
 .debug_str     0x00002922       0x12 ../fir_bsp/\libucosii_bsp.a(altera_avalon_jtag_uart_fd.o)
 .debug_str     0x00002934       0x1a ../fir_bsp/\libucosii_bsp.a(altera_avalon_jtag_uart_init.o)
 .debug_str     0x0000294e       0x12 ../fir_bsp/\libucosii_bsp.a(altera_avalon_jtag_uart_ioctl.o)
 .debug_str     0x00002960       0x22 ../fir_bsp/\libucosii_bsp.a(altera_avalon_jtag_uart_read.o)
 .debug_str     0x00002982       0x22 ../fir_bsp/\libucosii_bsp.a(altera_avalon_jtag_uart_write.o)
 .debug_str     0x000029a4       0x25 ../fir_bsp/\libucosii_bsp.a(altera_avalon_lcd_16207.o)
 .debug_str     0x000029c9       0x12 ../fir_bsp/\libucosii_bsp.a(altera_avalon_lcd_16207_fd.o)
 .debug_str     0x000029db       0x12 ../fir_bsp/\libucosii_bsp.a(altera_avalon_timer_sc.o)
 .debug_str     0x000029ed       0x12 ../fir_bsp/\libucosii_bsp.a(altera_avalon_uart_fd.o)
 .debug_str     0x000029ff       0x1f ../fir_bsp/\libucosii_bsp.a(altera_avalon_uart_init.o)
 .debug_str     0x00002a1e       0x1a ../fir_bsp/\libucosii_bsp.a(altera_avalon_uart_read.o)
 .debug_str     0x00002a38       0x1a ../fir_bsp/\libucosii_bsp.a(altera_avalon_uart_write.o)
 .debug_str     0x00002a52       0x2e ../fir_bsp/\libucosii_bsp.a(epcs_commands.o)
 .debug_str     0x00002a80       0x12 ../fir_bsp/\libucosii_bsp.a(alt_iniche_close.o)
 .debug_str     0x00002a92       0x12 ../fir_bsp/\libucosii_bsp.a(alt_iniche_dev.o)
 .debug_str     0x00002aa4       0x12 ../fir_bsp/\libucosii_bsp.a(alt_iniche_read.o)
 .debug_str     0x00002ab6       0x12 ../fir_bsp/\libucosii_bsp.a(alt_iniche_write.o)
 .debug_str     0x00002ac8       0x12 ../fir_bsp/\libucosii_bsp.a(ipnet.o)
 .debug_str     0x00002ada       0x12 ../fir_bsp/\libucosii_bsp.a(ipstart.o)
 .debug_str     0x00002aec       0x12 ../fir_bsp/\libucosii_bsp.a(igmp_cmn.o)
 .debug_str     0x00002afe       0x20 ../fir_bsp/\libucosii_bsp.a(bsdsock.o)
 .debug_str     0x00002b1e       0x12 ../fir_bsp/\libucosii_bsp.a(cksum.o)
 .debug_str     0x00002b30       0x12 ../fir_bsp/\libucosii_bsp.a(in_utils.o)
 .debug_str     0x00002b42       0x12 ../fir_bsp/\libucosii_bsp.a(parseip.o)
 .debug_str     0x00002b54       0x12 ../fir_bsp/\libucosii_bsp.a(tk_crnos.o)
 .debug_str     0x00002b66       0x12 ../fir_bsp/\libucosii_bsp.a(pktalloc.o)
 .debug_str     0x00002b78       0x12 ../fir_bsp/\libucosii_bsp.a(q.o)
 .debug_str     0x00002b8a       0x20 ../fir_bsp/\libucosii_bsp.a(brdutils.o)
 .debug_str     0x00002baa       0x22 ../fir_bsp/\libucosii_bsp.a(osportco.o)
 .debug_str     0x00002bcc       0x12 ../fir_bsp/\libucosii_bsp.a(targnios.o)
 .debug_str     0x00002bde       0x1e ../fir_bsp/\libucosii_bsp.a(nptcp.o)
 .debug_str     0x00002bfc       0x12 ../fir_bsp/\libucosii_bsp.a(rawsock.o)
 .debug_str     0x00002c0e       0x34 ../fir_bsp/\libucosii_bsp.a(sockcall.o)
 .debug_str     0x00002c42       0x18 ../fir_bsp/\libucosii_bsp.a(socket.o)
 .debug_str     0x00002c5a       0x12 ../fir_bsp/\libucosii_bsp.a(socket2.o)
 .debug_str     0x00002c6c       0x12 ../fir_bsp/\libucosii_bsp.a(soselect.o)
 .debug_str     0x00002c7e       0x12 ../fir_bsp/\libucosii_bsp.a(tcp_in.o)
 .debug_str     0x00002c90       0x12 ../fir_bsp/\libucosii_bsp.a(tcp_out.o)
 .debug_str     0x00002ca2       0x12 ../fir_bsp/\libucosii_bsp.a(tcp_subr.o)
 .debug_str     0x00002cb4       0x12 ../fir_bsp/\libucosii_bsp.a(tcp_timr.o)
 .debug_str     0x00002cc6       0x12 ../fir_bsp/\libucosii_bsp.a(tcp_usr.o)
 .debug_str     0x00002cd8       0x12 ../fir_bsp/\libucosii_bsp.a(tcpport.o)
 .debug_str     0x00002cea       0x1a ../fir_bsp/\libucosii_bsp.a(udpsock.o)
 .debug_str     0x00002d04       0x23 ../fir_bsp/\libucosii_bsp.a(alt_alarm_start.o)
 .debug_str     0x00002d27       0x12 ../fir_bsp/\libucosii_bsp.a(alt_busy_sleep.o)
 .debug_str     0x00002d39       0x12 ../fir_bsp/\libucosii_bsp.a(alt_close.o)
 .debug_str     0x00002d4b       0x12 ../fir_bsp/\libucosii_bsp.a(alt_dcache_flush.o)
 .debug_str     0x00002d5d       0x12 ../fir_bsp/\libucosii_bsp.a(alt_dev.o)
 .debug_str     0x00002d6f       0x12 ../fir_bsp/\libucosii_bsp.a(alt_dev_llist_insert.o)
 .debug_str     0x00002d81       0x12 ../fir_bsp/\libucosii_bsp.a(alt_errno.o)
 .debug_str     0x00002d93       0x12 ../fir_bsp/\libucosii_bsp.a(alt_find_dev.o)
 .debug_str     0x00002da5       0x18 ../fir_bsp/\libucosii_bsp.a(alt_iic.o)
 .debug_str     0x00002dbd       0x1a ../fir_bsp/\libucosii_bsp.a(alt_iic_isr_register.o)
 .debug_str     0x00002dd7       0x12 ../fir_bsp/\libucosii_bsp.a(alt_io_redirect.o)
 .debug_str     0x00002de9       0x12 ../fir_bsp/\libucosii_bsp.a(alt_irq_handler.o)
 .debug_str     0x00002dfb       0x12 ../fir_bsp/\libucosii_bsp.a(alt_open.o)
 .debug_str     0x00002e0d       0x12 ../fir_bsp/\libucosii_bsp.a(alt_read.o)
 .debug_str     0x00002e1f       0x12 ../fir_bsp/\libucosii_bsp.a(alt_release_fd.o)
 .debug_str     0x00002e31       0x12 ../fir_bsp/\libucosii_bsp.a(alt_remap_cached.o)
 .debug_str     0x00002e43       0x12 ../fir_bsp/\libucosii_bsp.a(alt_remap_uncached.o)
 .debug_str     0x00002e55       0x1a ../fir_bsp/\libucosii_bsp.a(alt_tick.o)
 .debug_str     0x00002e6f       0x12 ../fir_bsp/\libucosii_bsp.a(alt_write.o)
 .debug_str     0x00002e81       0x12 ../fir_bsp/\libucosii_bsp.a(altera_nios2_qsys_irq.o)
 .debug_str     0x00002e93       0x20 ../fir_bsp/\libucosii_bsp.a(os_cpu_c.o)
 .debug_str     0x00002eb3       0x76 ../fir_bsp/\libucosii_bsp.a(altera_avalon_cfi_flash_amd.o)
 .debug_str     0x00002f29       0x7d ../fir_bsp/\libucosii_bsp.a(altera_avalon_cfi_flash_intel.o)
 .debug_str     0x00002fa6       0x12 ../fir_bsp/\libucosii_bsp.a(allports.o)
 .debug_str     0x00002fb8       0x12 ../fir_bsp/\libucosii_bsp.a(tk_misc.o)
 .debug_str     0x00002fca       0x12 ../fir_bsp/\libucosii_bsp.a(alt_iniche_fcntl.o)
 .debug_str     0x00002fdc       0x3d ../fir_bsp/\libucosii_bsp.a(et_arp.o)
 .debug_str     0x00003019       0x12 ../fir_bsp/\libucosii_bsp.a(iface.o)
 .debug_str     0x0000302b       0x2c ../fir_bsp/\libucosii_bsp.a(ip.o)
 .debug_str     0x00003057       0x12 ../fir_bsp/\libucosii_bsp.a(ipdemux.o)
 .debug_str     0x00003069       0x12 ../fir_bsp/\libucosii_bsp.a(ipmc.o)
 .debug_str     0x0000307b       0x12 ../fir_bsp/\libucosii_bsp.a(ipport.o)
 .debug_str     0x0000308d       0x12 ../fir_bsp/\libucosii_bsp.a(ipraw.o)
 .debug_str     0x0000309f       0x12 ../fir_bsp/\libucosii_bsp.a(iproute.o)
 .debug_str     0x000030b1       0x12 ../fir_bsp/\libucosii_bsp.a(udp.o)
 .debug_str     0x000030c3       0x12 ../fir_bsp/\libucosii_bsp.a(igmp.o)
 .debug_str     0x000030d5       0x20 ../fir_bsp/\libucosii_bsp.a(igmp2.o)
 .debug_str     0x000030f5       0x12 ../fir_bsp/\libucosii_bsp.a(ipopt.o)
 .debug_str     0x00003107       0x12 ../fir_bsp/\libucosii_bsp.a(u_mctest.o)
 .debug_str     0x00003119       0x12 ../fir_bsp/\libucosii_bsp.a(dhcsetup.o)
 .debug_str     0x0000312b       0x1b ../fir_bsp/\libucosii_bsp.a(memdev.o)
 .debug_str     0x00003146       0x12 ../fir_bsp/\libucosii_bsp.a(netmain.o)
 .debug_str     0x00003158       0x12 ../fir_bsp/\libucosii_bsp.a(tcpcksum.o)
 .debug_str     0x0000316a       0x2e ../fir_bsp/\libucosii_bsp.a(dhcpclnt.o)
 .debug_str     0x00003198       0x12 ../fir_bsp/\libucosii_bsp.a(dhcputil.o)
 .debug_str     0x000031aa       0x12 ../fir_bsp/\libucosii_bsp.a(udp_open.o)
 .debug_str     0x000031bc       0x12 ../fir_bsp/\libucosii_bsp.a(in_pcb.o)
 .debug_str     0x000031ce       0x2b ../fir_bsp/\libucosii_bsp.a(vfsfiles.o)
 .debug_str     0x000031f9       0x12 ../fir_bsp/\libucosii_bsp.a(vfsport.o)
 .debug_str     0x0000320b       0x12 ../fir_bsp/\libucosii_bsp.a(alt_fcntl.o)
 .debug_str     0x0000321d       0x12 ../fir_bsp/\libucosii_bsp.a(alt_find_file.o)
 .debug_str     0x0000322f       0x12 ../fir_bsp/\libucosii_bsp.a(alt_get_fd.o)
 .debug_str     0x00003241       0x1b ../fir_bsp/\libucosii_bsp.a(timeouts.o)
 .debug_str     0x0000325c       0x12 ../fir_bsp/\libucosii_bsp.a(icmp.o)
 .debug_str     0x0000326e       0x4e ../fir_bsp/\libucosii_bsp.a(ip_reasm.o)
 .debug_str     0x000032bc       0x3b d:/altera/13.0sp1/nios2eds/bin/gnu/h-i686-mingw32/bin/../lib/gcc/nios2-elf/4.1.2/../../../../nios2-elf/lib\libc.a(lib_a-atexit.o)
                                0x1bf (size before relaxing)
 .debug_str     0x000032f7       0x46 d:/altera/13.0sp1/nios2eds/bin/gnu/h-i686-mingw32/bin/../lib/gcc/nios2-elf/4.1.2/../../../../nios2-elf/lib\libc.a(lib_a-atoi.o)
                                0x4fc (size before relaxing)
 .debug_str     0x0000333d       0x42 d:/altera/13.0sp1/nios2eds/bin/gnu/h-i686-mingw32/bin/../lib/gcc/nios2-elf/4.1.2/../../../../nios2-elf/lib\libc.a(lib_a-calloc.o)
                                0x510 (size before relaxing)
 .debug_str     0x0000337f       0x42 d:/altera/13.0sp1/nios2eds/bin/gnu/h-i686-mingw32/bin/../lib/gcc/nios2-elf/4.1.2/../../../../nios2-elf/lib\libc.a(lib_a-memcmp.o)
                                0x16a (size before relaxing)
 .debug_str     0x000033c1       0x46 d:/altera/13.0sp1/nios2eds/bin/gnu/h-i686-mingw32/bin/../lib/gcc/nios2-elf/4.1.2/../../../../nios2-elf/lib\libc.a(lib_a-sprintf.o)
                                0x52b (size before relaxing)
 .debug_str     0x00003407       0x42 d:/altera/13.0sp1/nios2eds/bin/gnu/h-i686-mingw32/bin/../lib/gcc/nios2-elf/4.1.2/../../../../nios2-elf/lib\libc.a(lib_a-strcpy.o)
                                0x185 (size before relaxing)
 .debug_str     0x00003449       0x44 d:/altera/13.0sp1/nios2eds/bin/gnu/h-i686-mingw32/bin/../lib/gcc/nios2-elf/4.1.2/../../../../nios2-elf/lib\libc.a(lib_a-strncmp.o)
                                0x16c (size before relaxing)
 .debug_str     0x0000348d       0x44 d:/altera/13.0sp1/nios2eds/bin/gnu/h-i686-mingw32/bin/../lib/gcc/nios2-elf/4.1.2/../../../../nios2-elf/lib\libc.a(lib_a-strncpy.o)
                                0x194 (size before relaxing)
 .debug_str     0x000034d1       0x61 d:/altera/13.0sp1/nios2eds/bin/gnu/h-i686-mingw32/bin/../lib/gcc/nios2-elf/4.1.2/../../../../nios2-elf/lib\libc.a(lib_a-strtol.o)
                                0x53e (size before relaxing)
 .debug_str     0x00003532       0x4e d:/altera/13.0sp1/nios2eds/bin/gnu/h-i686-mingw32/bin/../lib/gcc/nios2-elf/4.1.2/../../../../nios2-elf/lib\libc.a(lib_a-vprintf.o)
                                0x526 (size before relaxing)
 .debug_str     0x00003580       0x51 d:/altera/13.0sp1/nios2eds/bin/gnu/h-i686-mingw32/bin/../lib/gcc/nios2-elf/4.1.2/../../../../nios2-elf/lib\libc.a(lib_a-vsprintf.o)
                                0x52e (size before relaxing)
 .debug_str     0x000035d1       0x51 d:/altera/13.0sp1/nios2eds/bin/gnu/h-i686-mingw32/bin/../lib/gcc/nios2-elf/4.1.2/../../../../nios2-elf/lib\libc.a(lib_a-__atexit.o)
                                0x524 (size before relaxing)

.debug_loc      0x00000000    0x13ea5
 *(.debug_loc)
 .debug_loc     0x00000000      0x103 obj/default/LCD.o
 .debug_loc     0x00000103       0x56 obj/default/SSS_DE2_115.o
 .debug_loc     0x00000159       0x81 obj/default/alt_error_handler.o
 .debug_loc     0x000001da      0x25a obj/default/dm9000a.o
 .debug_loc     0x00000434      0x104 obj/default/iniche_init.o
 .debug_loc     0x00000538       0x81 obj/default/led.o
 .debug_loc     0x000005b9      0x103 obj/default/network_utilities.o
 .debug_loc     0x000006bc      0x15b obj/default/simple_socket_server.o
 .debug_loc     0x00000817       0x87 d:/altera/13.0sp1/nios2eds/bin/gnu/h-i686-mingw32/bin/../lib/gcc/nios2-elf/4.1.2\libgcc.a(_fixunsdfsi.o)
 .debug_loc     0x0000089e      0x47a d:/altera/13.0sp1/nios2eds/bin/gnu/h-i686-mingw32/bin/../lib/gcc/nios2-elf/4.1.2\libgcc.a(_addsub_df.o)
 .debug_loc     0x00000d18      0x3b4 d:/altera/13.0sp1/nios2eds/bin/gnu/h-i686-mingw32/bin/../lib/gcc/nios2-elf/4.1.2\libgcc.a(_mul_df.o)
 .debug_loc     0x000010cc       0x70 d:/altera/13.0sp1/nios2eds/bin/gnu/h-i686-mingw32/bin/../lib/gcc/nios2-elf/4.1.2\libgcc.a(_ge_df.o)
 .debug_loc     0x0000113c       0x8b d:/altera/13.0sp1/nios2eds/bin/gnu/h-i686-mingw32/bin/../lib/gcc/nios2-elf/4.1.2\libgcc.a(_df_to_si.o)
 .debug_loc     0x000011c7       0x5b d:/altera/13.0sp1/nios2eds/bin/gnu/h-i686-mingw32/bin/../lib/gcc/nios2-elf/4.1.2\libgcc.a(_usi_to_df.o)
 .debug_loc     0x00001222       0xc4 d:/altera/13.0sp1/nios2eds/bin/gnu/h-i686-mingw32/bin/../lib/gcc/nios2-elf/4.1.2\libgcc.a(_muldi3.o)
 .debug_loc     0x000012e6       0x1e d:/altera/13.0sp1/nios2eds/bin/gnu/h-i686-mingw32/bin/../lib/gcc/nios2-elf/4.1.2\libgcc.a(_clzsi2.o)
 .debug_loc     0x00001304      0x184 d:/altera/13.0sp1/nios2eds/bin/gnu/h-i686-mingw32/bin/../lib/gcc/nios2-elf/4.1.2\libgcc.a(_pack_df.o)
 .debug_loc     0x00001488       0xe5 d:/altera/13.0sp1/nios2eds/bin/gnu/h-i686-mingw32/bin/../lib/gcc/nios2-elf/4.1.2\libgcc.a(_unpack_df.o)
 .debug_loc     0x0000156d       0x3d d:/altera/13.0sp1/nios2eds/bin/gnu/h-i686-mingw32/bin/../lib/gcc/nios2-elf/4.1.2/../../../../nios2-elf/lib\libc.a(lib_a-exit.o)
 .debug_loc     0x000015aa       0xf1 d:/altera/13.0sp1/nios2eds/bin/gnu/h-i686-mingw32/bin/../lib/gcc/nios2-elf/4.1.2/../../../../nios2-elf/lib\libc.a(lib_a-fprintf.o)
 .debug_loc     0x0000169b      0x18e d:/altera/13.0sp1/nios2eds/bin/gnu/h-i686-mingw32/bin/../lib/gcc/nios2-elf/4.1.2/../../../../nios2-elf/lib\libc.a(lib_a-fwrite.o)
 .debug_loc     0x00001829      0x10b d:/altera/13.0sp1/nios2eds/bin/gnu/h-i686-mingw32/bin/../lib/gcc/nios2-elf/4.1.2/../../../../nios2-elf/lib\libc.a(lib_a-getc.o)
 .debug_loc     0x00001934       0x3c d:/altera/13.0sp1/nios2eds/bin/gnu/h-i686-mingw32/bin/../lib/gcc/nios2-elf/4.1.2/../../../../nios2-elf/lib\libc.a(lib_a-malloc.o)
 .debug_loc     0x00001970      0xaeb d:/altera/13.0sp1/nios2eds/bin/gnu/h-i686-mingw32/bin/../lib/gcc/nios2-elf/4.1.2/../../../../nios2-elf/lib\libc.a(lib_a-mallocr.o)
 .debug_loc     0x0000245b       0xca d:/altera/13.0sp1/nios2eds/bin/gnu/h-i686-mingw32/bin/../lib/gcc/nios2-elf/4.1.2/../../../../nios2-elf/lib\libc.a(lib_a-memcpy.o)
 .debug_loc     0x00002525      0x117 d:/altera/13.0sp1/nios2eds/bin/gnu/h-i686-mingw32/bin/../lib/gcc/nios2-elf/4.1.2/../../../../nios2-elf/lib\libc.a(lib_a-memmove.o)
 .debug_loc     0x0000263c       0xa1 d:/altera/13.0sp1/nios2eds/bin/gnu/h-i686-mingw32/bin/../lib/gcc/nios2-elf/4.1.2/../../../../nios2-elf/lib\libc.a(lib_a-memset.o)
 .debug_loc     0x000026dd       0xa2 d:/altera/13.0sp1/nios2eds/bin/gnu/h-i686-mingw32/bin/../lib/gcc/nios2-elf/4.1.2/../../../../nios2-elf/lib\libc.a(lib_a-perror.o)
 .debug_loc     0x0000277f       0xcb d:/altera/13.0sp1/nios2eds/bin/gnu/h-i686-mingw32/bin/../lib/gcc/nios2-elf/4.1.2/../../../../nios2-elf/lib\libc.a(lib_a-printf.o)
 .debug_loc     0x0000284a      0x20d d:/altera/13.0sp1/nios2eds/bin/gnu/h-i686-mingw32/bin/../lib/gcc/nios2-elf/4.1.2/../../../../nios2-elf/lib\libc.a(lib_a-putc.o)
 .debug_loc     0x00002a57       0x44 d:/altera/13.0sp1/nios2eds/bin/gnu/h-i686-mingw32/bin/../lib/gcc/nios2-elf/4.1.2/../../../../nios2-elf/lib\libc.a(lib_a-putchar.o)
 .debug_loc     0x00002a9b       0xa2 d:/altera/13.0sp1/nios2eds/bin/gnu/h-i686-mingw32/bin/../lib/gcc/nios2-elf/4.1.2/../../../../nios2-elf/lib\libc.a(lib_a-puts.o)
 .debug_loc     0x00002b3d       0x6e d:/altera/13.0sp1/nios2eds/bin/gnu/h-i686-mingw32/bin/../lib/gcc/nios2-elf/4.1.2/../../../../nios2-elf/lib\libc.a(lib_a-rget.o)
 .debug_loc     0x00002bab       0x5b d:/altera/13.0sp1/nios2eds/bin/gnu/h-i686-mingw32/bin/../lib/gcc/nios2-elf/4.1.2/../../../../nios2-elf/lib\libc.a(lib_a-sbrkr.o)
 .debug_loc     0x00002c06       0xf3 d:/altera/13.0sp1/nios2eds/bin/gnu/h-i686-mingw32/bin/../lib/gcc/nios2-elf/4.1.2/../../../../nios2-elf/lib\libc.a(lib_a-strchr.o)
 .debug_loc     0x00002cf9      0x418 d:/altera/13.0sp1/nios2eds/bin/gnu/h-i686-mingw32/bin/../lib/gcc/nios2-elf/4.1.2/../../../../nios2-elf/lib\libc.a(lib_a-strerror.o)
 .debug_loc     0x00003111       0x3c d:/altera/13.0sp1/nios2eds/bin/gnu/h-i686-mingw32/bin/../lib/gcc/nios2-elf/4.1.2/../../../../nios2-elf/lib\libc.a(lib_a-strlen.o)
 .debug_loc     0x0000314d     0x1e0d d:/altera/13.0sp1/nios2eds/bin/gnu/h-i686-mingw32/bin/../lib/gcc/nios2-elf/4.1.2/../../../../nios2-elf/lib\libc.a(lib_a-vfprintf.o)
 .debug_loc     0x00004f5a      0x157 d:/altera/13.0sp1/nios2eds/bin/gnu/h-i686-mingw32/bin/../lib/gcc/nios2-elf/4.1.2/../../../../nios2-elf/lib\libc.a(lib_a-wbuf.o)
 .debug_loc     0x000050b1       0x7c d:/altera/13.0sp1/nios2eds/bin/gnu/h-i686-mingw32/bin/../lib/gcc/nios2-elf/4.1.2/../../../../nios2-elf/lib\libc.a(lib_a-wsetup.o)
 .debug_loc     0x0000512d      0x1cb d:/altera/13.0sp1/nios2eds/bin/gnu/h-i686-mingw32/bin/../lib/gcc/nios2-elf/4.1.2/../../../../nios2-elf/lib\libc.a(lib_a-__call_atexit.o)
 .debug_loc     0x000052f8     0x1dfa d:/altera/13.0sp1/nios2eds/bin/gnu/h-i686-mingw32/bin/../lib/gcc/nios2-elf/4.1.2/../../../../nios2-elf/lib\libc.a(lib_a-dtoa.o)
 .debug_loc     0x000070f2      0x1f6 d:/altera/13.0sp1/nios2eds/bin/gnu/h-i686-mingw32/bin/../lib/gcc/nios2-elf/4.1.2/../../../../nios2-elf/lib\libc.a(lib_a-fflush.o)
 .debug_loc     0x000072e8      0x19f d:/altera/13.0sp1/nios2eds/bin/gnu/h-i686-mingw32/bin/../lib/gcc/nios2-elf/4.1.2/../../../../nios2-elf/lib\libc.a(lib_a-findfp.o)
 .debug_loc     0x00007487      0x14d d:/altera/13.0sp1/nios2eds/bin/gnu/h-i686-mingw32/bin/../lib/gcc/nios2-elf/4.1.2/../../../../nios2-elf/lib\libc.a(lib_a-fputc.o)
 .debug_loc     0x000075d4       0xcb d:/altera/13.0sp1/nios2eds/bin/gnu/h-i686-mingw32/bin/../lib/gcc/nios2-elf/4.1.2/../../../../nios2-elf/lib\libc.a(lib_a-fputs.o)
 .debug_loc     0x0000769f      0x4a7 d:/altera/13.0sp1/nios2eds/bin/gnu/h-i686-mingw32/bin/../lib/gcc/nios2-elf/4.1.2/../../../../nios2-elf/lib\libc.a(lib_a-freer.o)
 .debug_loc     0x00007b46      0x4e4 d:/altera/13.0sp1/nios2eds/bin/gnu/h-i686-mingw32/bin/../lib/gcc/nios2-elf/4.1.2/../../../../nios2-elf/lib\libc.a(lib_a-fvwrite.o)
 .debug_loc     0x0000802a      0x1d2 d:/altera/13.0sp1/nios2eds/bin/gnu/h-i686-mingw32/bin/../lib/gcc/nios2-elf/4.1.2/../../../../nios2-elf/lib\libc.a(lib_a-fwalk.o)
 .debug_loc     0x000081fc       0xe1 d:/altera/13.0sp1/nios2eds/bin/gnu/h-i686-mingw32/bin/../lib/gcc/nios2-elf/4.1.2/../../../../nios2-elf/lib\libc.a(lib_a-locale.o)
 .debug_loc     0x000082dd      0x11c d:/altera/13.0sp1/nios2eds/bin/gnu/h-i686-mingw32/bin/../lib/gcc/nios2-elf/4.1.2/../../../../nios2-elf/lib\libc.a(lib_a-makebuf.o)
 .debug_loc     0x000083f9      0x106 d:/altera/13.0sp1/nios2eds/bin/gnu/h-i686-mingw32/bin/../lib/gcc/nios2-elf/4.1.2/../../../../nios2-elf/lib\libc.a(lib_a-memchr.o)
 .debug_loc     0x000084ff     0x14d6 d:/altera/13.0sp1/nios2eds/bin/gnu/h-i686-mingw32/bin/../lib/gcc/nios2-elf/4.1.2/../../../../nios2-elf/lib\libc.a(lib_a-mprec.o)
 .debug_loc     0x000099d5      0x8c0 d:/altera/13.0sp1/nios2eds/bin/gnu/h-i686-mingw32/bin/../lib/gcc/nios2-elf/4.1.2/../../../../nios2-elf/lib\libc.a(lib_a-reallocr.o)
 .debug_loc     0x0000a295       0xd1 d:/altera/13.0sp1/nios2eds/bin/gnu/h-i686-mingw32/bin/../lib/gcc/nios2-elf/4.1.2/../../../../nios2-elf/lib\libc.a(lib_a-refill.o)
 .debug_loc     0x0000a366       0x36 d:/altera/13.0sp1/nios2eds/bin/gnu/h-i686-mingw32/bin/../lib/gcc/nios2-elf/4.1.2/../../../../nios2-elf/lib\libc.a(lib_a-s_isinfd.o)
 .debug_loc     0x0000a39c       0x18 d:/altera/13.0sp1/nios2eds/bin/gnu/h-i686-mingw32/bin/../lib/gcc/nios2-elf/4.1.2/../../../../nios2-elf/lib\libc.a(lib_a-s_isnand.o)
 .debug_loc     0x0000a3b4      0x21f d:/altera/13.0sp1/nios2eds/bin/gnu/h-i686-mingw32/bin/../lib/gcc/nios2-elf/4.1.2/../../../../nios2-elf/lib\libc.a(lib_a-stdio.o)
 .debug_loc     0x0000a5d3       0x65 d:/altera/13.0sp1/nios2eds/bin/gnu/h-i686-mingw32/bin/../lib/gcc/nios2-elf/4.1.2/../../../../nios2-elf/lib\libc.a(lib_a-strcmp.o)
 .debug_loc     0x0000a638       0x97 d:/altera/13.0sp1/nios2eds/bin/gnu/h-i686-mingw32/bin/../lib/gcc/nios2-elf/4.1.2/../../../../nios2-elf/lib\libc.a(lib_a-writer.o)
 .debug_loc     0x0000a6cf       0xe9 d:/altera/13.0sp1/nios2eds/bin/gnu/h-i686-mingw32/bin/../lib/gcc/nios2-elf/4.1.2/../../../../nios2-elf/lib\libc.a(lib_a-callocr.o)
 .debug_loc     0x0000a7b8       0x5b d:/altera/13.0sp1/nios2eds/bin/gnu/h-i686-mingw32/bin/../lib/gcc/nios2-elf/4.1.2/../../../../nios2-elf/lib\libc.a(lib_a-closer.o)
 .debug_loc     0x0000a813       0xe4 d:/altera/13.0sp1/nios2eds/bin/gnu/h-i686-mingw32/bin/../lib/gcc/nios2-elf/4.1.2/../../../../nios2-elf/lib\libc.a(lib_a-fclose.o)
 .debug_loc     0x0000a8f7       0x79 d:/altera/13.0sp1/nios2eds/bin/gnu/h-i686-mingw32/bin/../lib/gcc/nios2-elf/4.1.2/../../../../nios2-elf/lib\libc.a(lib_a-fstatr.o)
 .debug_loc     0x0000a970       0x5b d:/altera/13.0sp1/nios2eds/bin/gnu/h-i686-mingw32/bin/../lib/gcc/nios2-elf/4.1.2/../../../../nios2-elf/lib\libc.a(lib_a-isattyr.o)
 .debug_loc     0x0000a9cb       0x97 d:/altera/13.0sp1/nios2eds/bin/gnu/h-i686-mingw32/bin/../lib/gcc/nios2-elf/4.1.2/../../../../nios2-elf/lib\libc.a(lib_a-lseekr.o)
 .debug_loc     0x0000aa62       0x97 d:/altera/13.0sp1/nios2eds/bin/gnu/h-i686-mingw32/bin/../lib/gcc/nios2-elf/4.1.2/../../../../nios2-elf/lib\libc.a(lib_a-readr.o)
 .debug_loc     0x0000aaf9      0xc12 d:/altera/13.0sp1/nios2eds/bin/gnu/h-i686-mingw32/bin/../lib/gcc/nios2-elf/4.1.2\libgcc.a(_udivdi3.o)
 .debug_loc     0x0000b70b      0xc26 d:/altera/13.0sp1/nios2eds/bin/gnu/h-i686-mingw32/bin/../lib/gcc/nios2-elf/4.1.2\libgcc.a(_umoddi3.o)
 .debug_loc     0x0000c331      0x1df d:/altera/13.0sp1/nios2eds/bin/gnu/h-i686-mingw32/bin/../lib/gcc/nios2-elf/4.1.2\libgcc.a(_div_df.o)
 .debug_loc     0x0000c510       0x70 d:/altera/13.0sp1/nios2eds/bin/gnu/h-i686-mingw32/bin/../lib/gcc/nios2-elf/4.1.2\libgcc.a(_eq_df.o)
 .debug_loc     0x0000c580       0x70 d:/altera/13.0sp1/nios2eds/bin/gnu/h-i686-mingw32/bin/../lib/gcc/nios2-elf/4.1.2\libgcc.a(_ne_df.o)
 .debug_loc     0x0000c5f0       0x70 d:/altera/13.0sp1/nios2eds/bin/gnu/h-i686-mingw32/bin/../lib/gcc/nios2-elf/4.1.2\libgcc.a(_gt_df.o)
 .debug_loc     0x0000c660       0x70 d:/altera/13.0sp1/nios2eds/bin/gnu/h-i686-mingw32/bin/../lib/gcc/nios2-elf/4.1.2\libgcc.a(_lt_df.o)
 .debug_loc     0x0000c6d0       0x9a d:/altera/13.0sp1/nios2eds/bin/gnu/h-i686-mingw32/bin/../lib/gcc/nios2-elf/4.1.2\libgcc.a(_si_to_df.o)
 .debug_loc     0x0000c76a      0x1d2 d:/altera/13.0sp1/nios2eds/bin/gnu/h-i686-mingw32/bin/../lib/gcc/nios2-elf/4.1.2\libgcc.a(lib2-divmod.o)
 .debug_loc     0x0000c93c       0x56 ../fir_bsp/\libucosii_bsp.a(alt_exit.o)
 .debug_loc     0x0000c992       0x56 ../fir_bsp/\libucosii_bsp.a(alt_flash_dev.o)
 .debug_loc     0x0000c9e8       0x56 ../fir_bsp/\libucosii_bsp.a(alt_fstat.o)
 .debug_loc     0x0000ca3e       0x2c ../fir_bsp/\libucosii_bsp.a(alt_irq_register.o)
 .debug_loc     0x0000ca6a       0x57 ../fir_bsp/\libucosii_bsp.a(alt_isatty.o)
 .debug_loc     0x0000cac1       0x56 ../fir_bsp/\libucosii_bsp.a(alt_lseek.o)
 .debug_loc     0x0000cb17       0x2b ../fir_bsp/\libucosii_bsp.a(alt_main.o)
 .debug_loc     0x0000cb42       0x2b ../fir_bsp/\libucosii_bsp.a(alt_sbrk.o)
 .debug_loc     0x0000cb6d       0x2b ../fir_bsp/\libucosii_bsp.a(alt_usleep.o)
 .debug_loc     0x0000cb98       0x57 ../fir_bsp/\libucosii_bsp.a(alt_env_lock.o)
 .debug_loc     0x0000cbef       0x57 ../fir_bsp/\libucosii_bsp.a(alt_malloc_lock.o)
 .debug_loc     0x0000cc46      0x5e2 ../fir_bsp/\libucosii_bsp.a(os_core.o)
 .debug_loc     0x0000d228       0x2b ../fir_bsp/\libucosii_bsp.a(os_dbg.o)
 .debug_loc     0x0000d253      0x232 ../fir_bsp/\libucosii_bsp.a(os_flag.o)
 .debug_loc     0x0000d485      0x12d ../fir_bsp/\libucosii_bsp.a(os_mem.o)
 .debug_loc     0x0000d5b2      0x1da ../fir_bsp/\libucosii_bsp.a(os_q.o)
 .debug_loc     0x0000d78c      0x158 ../fir_bsp/\libucosii_bsp.a(os_sem.o)
 .debug_loc     0x0000d8e4      0x207 ../fir_bsp/\libucosii_bsp.a(os_task.o)
 .debug_loc     0x0000daeb       0xd7 ../fir_bsp/\libucosii_bsp.a(os_time.o)
 .debug_loc     0x0000dbc2       0x81 ../fir_bsp/\libucosii_bsp.a(alt_sys_init.o)
 .debug_loc     0x0000dc43      0x12e ../fir_bsp/\libucosii_bsp.a(altera_avalon_cfi_flash.o)
 .debug_loc     0x0000dd71      0x306 ../fir_bsp/\libucosii_bsp.a(altera_avalon_cfi_flash_table.o)
 .debug_loc     0x0000e077      0x1af ../fir_bsp/\libucosii_bsp.a(altera_avalon_epcs_flash_controller.o)
 .debug_loc     0x0000e226       0xac ../fir_bsp/\libucosii_bsp.a(altera_avalon_jtag_uart_fd.o)
 .debug_loc     0x0000e2d2       0xac ../fir_bsp/\libucosii_bsp.a(altera_avalon_jtag_uart_init.o)
 .debug_loc     0x0000e37e       0x2b ../fir_bsp/\libucosii_bsp.a(altera_avalon_jtag_uart_ioctl.o)
 .debug_loc     0x0000e3a9       0x2c ../fir_bsp/\libucosii_bsp.a(altera_avalon_jtag_uart_read.o)
 .debug_loc     0x0000e3d5       0x2c ../fir_bsp/\libucosii_bsp.a(altera_avalon_jtag_uart_write.o)
 .debug_loc     0x0000e401      0x184 ../fir_bsp/\libucosii_bsp.a(altera_avalon_lcd_16207.o)
 .debug_loc     0x0000e585       0x2b ../fir_bsp/\libucosii_bsp.a(altera_avalon_lcd_16207_fd.o)
 .debug_loc     0x0000e5b0       0x56 ../fir_bsp/\libucosii_bsp.a(altera_avalon_timer_sc.o)
 .debug_loc     0x0000e606       0x81 ../fir_bsp/\libucosii_bsp.a(altera_avalon_uart_fd.o)
 .debug_loc     0x0000e687       0xd8 ../fir_bsp/\libucosii_bsp.a(altera_avalon_uart_init.o)
 .debug_loc     0x0000e75f       0x57 ../fir_bsp/\libucosii_bsp.a(altera_avalon_uart_read.o)
 .debug_loc     0x0000e7b6       0x57 ../fir_bsp/\libucosii_bsp.a(altera_avalon_uart_write.o)
 .debug_loc     0x0000e80d      0x204 ../fir_bsp/\libucosii_bsp.a(epcs_commands.o)
 .debug_loc     0x0000ea11       0x2b ../fir_bsp/\libucosii_bsp.a(alt_iniche_close.o)
 .debug_loc     0x0000ea3c       0x2b ../fir_bsp/\libucosii_bsp.a(alt_iniche_dev.o)
 .debug_loc     0x0000ea67       0x2b ../fir_bsp/\libucosii_bsp.a(alt_iniche_read.o)
 .debug_loc     0x0000ea92       0x2b ../fir_bsp/\libucosii_bsp.a(alt_iniche_write.o)
 .debug_loc     0x0000eabd      0x102 ../fir_bsp/\libucosii_bsp.a(ipnet.o)
 .debug_loc     0x0000ebbf       0xac ../fir_bsp/\libucosii_bsp.a(ipstart.o)
 .debug_loc     0x0000ec6b      0x159 ../fir_bsp/\libucosii_bsp.a(igmp_cmn.o)
 .debug_loc     0x0000edc4      0x1af ../fir_bsp/\libucosii_bsp.a(bsdsock.o)
 .debug_loc     0x0000ef73       0x56 ../fir_bsp/\libucosii_bsp.a(cksum.o)
 .debug_loc     0x0000efc9      0x204 ../fir_bsp/\libucosii_bsp.a(in_utils.o)
 .debug_loc     0x0000f1cd      0x183 ../fir_bsp/\libucosii_bsp.a(parseip.o)
 .debug_loc     0x0000f350      0x12f ../fir_bsp/\libucosii_bsp.a(tk_crnos.o)
 .debug_loc     0x0000f47f      0x102 ../fir_bsp/\libucosii_bsp.a(pktalloc.o)
 .debug_loc     0x0000f581       0x81 ../fir_bsp/\libucosii_bsp.a(q.o)
 .debug_loc     0x0000f602      0x158 ../fir_bsp/\libucosii_bsp.a(brdutils.o)
 .debug_loc     0x0000f75a       0xd8 ../fir_bsp/\libucosii_bsp.a(osportco.o)
 .debug_loc     0x0000f832      0x183 ../fir_bsp/\libucosii_bsp.a(targnios.o)
 .debug_loc     0x0000f9b5      0x306 ../fir_bsp/\libucosii_bsp.a(nptcp.o)
 .debug_loc     0x0000fcbb       0x82 ../fir_bsp/\libucosii_bsp.a(rawsock.o)
 .debug_loc     0x0000fd3d      0x332 ../fir_bsp/\libucosii_bsp.a(sockcall.o)
 .debug_loc     0x0001006f      0x2b1 ../fir_bsp/\libucosii_bsp.a(socket.o)
 .debug_loc     0x00010320      0x3dd ../fir_bsp/\libucosii_bsp.a(socket2.o)
 .debug_loc     0x000106fd      0x184 ../fir_bsp/\libucosii_bsp.a(soselect.o)
 .debug_loc     0x00010881      0x12e ../fir_bsp/\libucosii_bsp.a(tcp_in.o)
 .debug_loc     0x000109af       0x82 ../fir_bsp/\libucosii_bsp.a(tcp_out.o)
 .debug_loc     0x00010a31      0x183 ../fir_bsp/\libucosii_bsp.a(tcp_subr.o)
 .debug_loc     0x00010bb4       0x81 ../fir_bsp/\libucosii_bsp.a(tcp_timr.o)
 .debug_loc     0x00010c35       0xac ../fir_bsp/\libucosii_bsp.a(tcp_usr.o)
 .debug_loc     0x00010ce1       0x2b ../fir_bsp/\libucosii_bsp.a(tcpport.o)
 .debug_loc     0x00010d0c      0x102 ../fir_bsp/\libucosii_bsp.a(udpsock.o)
 .debug_loc     0x00010e0e       0x2b ../fir_bsp/\libucosii_bsp.a(alt_alarm_start.o)
 .debug_loc     0x00010e39       0x2b ../fir_bsp/\libucosii_bsp.a(alt_busy_sleep.o)
 .debug_loc     0x00010e64       0x56 ../fir_bsp/\libucosii_bsp.a(alt_close.o)
 .debug_loc     0x00010eba       0x2b ../fir_bsp/\libucosii_bsp.a(alt_dcache_flush.o)
 .debug_loc     0x00010ee5       0x2b ../fir_bsp/\libucosii_bsp.a(alt_dev.o)
 .debug_loc     0x00010f10       0x56 ../fir_bsp/\libucosii_bsp.a(alt_dev_llist_insert.o)
 .debug_loc     0x00010f66       0x2b ../fir_bsp/\libucosii_bsp.a(alt_do_ctors.o)
 .debug_loc     0x00010f91       0x2b ../fir_bsp/\libucosii_bsp.a(alt_do_dtors.o)
 .debug_loc     0x00010fbc       0x2b ../fir_bsp/\libucosii_bsp.a(alt_find_dev.o)
 .debug_loc     0x00010fe7       0xac ../fir_bsp/\libucosii_bsp.a(alt_iic.o)
 .debug_loc     0x00011093       0x2b ../fir_bsp/\libucosii_bsp.a(alt_iic_isr_register.o)
 .debug_loc     0x000110be       0x56 ../fir_bsp/\libucosii_bsp.a(alt_io_redirect.o)
 .debug_loc     0x00011114       0x2b ../fir_bsp/\libucosii_bsp.a(alt_irq_handler.o)
 .debug_loc     0x0001113f       0x81 ../fir_bsp/\libucosii_bsp.a(alt_open.o)
 .debug_loc     0x000111c0       0x56 ../fir_bsp/\libucosii_bsp.a(alt_read.o)
 .debug_loc     0x00011216       0x2b ../fir_bsp/\libucosii_bsp.a(alt_release_fd.o)
 .debug_loc     0x00011241       0x2b ../fir_bsp/\libucosii_bsp.a(alt_remap_cached.o)
 .debug_loc     0x0001126c       0x2b ../fir_bsp/\libucosii_bsp.a(alt_remap_uncached.o)
 .debug_loc     0x00011297       0x56 ../fir_bsp/\libucosii_bsp.a(alt_tick.o)
 .debug_loc     0x000112ed       0x56 ../fir_bsp/\libucosii_bsp.a(alt_write.o)
 .debug_loc     0x00011343       0x2b ../fir_bsp/\libucosii_bsp.a(altera_nios2_qsys_irq.o)
 .debug_loc     0x0001136e      0x1ae ../fir_bsp/\libucosii_bsp.a(os_cpu_c.o)
 .debug_loc     0x0001151c       0xac ../fir_bsp/\libucosii_bsp.a(altera_avalon_cfi_flash_amd.o)
 .debug_loc     0x000115c8       0xac ../fir_bsp/\libucosii_bsp.a(altera_avalon_cfi_flash_intel.o)
 .debug_loc     0x00011674       0x2b ../fir_bsp/\libucosii_bsp.a(altera_avalon_spi.o)
 .debug_loc     0x0001169f      0x12d ../fir_bsp/\libucosii_bsp.a(allports.o)
 .debug_loc     0x000117cc       0x56 ../fir_bsp/\libucosii_bsp.a(tk_misc.o)
 .debug_loc     0x00011822       0x2b ../fir_bsp/\libucosii_bsp.a(alt_iniche_fcntl.o)
 .debug_loc     0x0001184d      0x204 ../fir_bsp/\libucosii_bsp.a(et_arp.o)
 .debug_loc     0x00011a51       0xac ../fir_bsp/\libucosii_bsp.a(iface.o)
 .debug_loc     0x00011afd      0x207 ../fir_bsp/\libucosii_bsp.a(ip.o)
 .debug_loc     0x00011d04       0x81 ../fir_bsp/\libucosii_bsp.a(ipdemux.o)
 .debug_loc     0x00011d85       0x81 ../fir_bsp/\libucosii_bsp.a(ipmc.o)
 .debug_loc     0x00011e06       0x81 ../fir_bsp/\libucosii_bsp.a(ipport.o)
 .debug_loc     0x00011e87      0x102 ../fir_bsp/\libucosii_bsp.a(ipraw.o)
 .debug_loc     0x00011f89       0x81 ../fir_bsp/\libucosii_bsp.a(iproute.o)
 .debug_loc     0x0001200a      0x12f ../fir_bsp/\libucosii_bsp.a(udp.o)
 .debug_loc     0x00012139       0x2b ../fir_bsp/\libucosii_bsp.a(igmp.o)
 .debug_loc     0x00012164       0xd7 ../fir_bsp/\libucosii_bsp.a(igmp2.o)
 .debug_loc     0x0001223b       0xac ../fir_bsp/\libucosii_bsp.a(ipopt.o)
 .debug_loc     0x000122e7       0x57 ../fir_bsp/\libucosii_bsp.a(u_mctest.o)
 .debug_loc     0x0001233e       0x56 ../fir_bsp/\libucosii_bsp.a(dhcsetup.o)
 .debug_loc     0x00012394      0x183 ../fir_bsp/\libucosii_bsp.a(memdev.o)
 .debug_loc     0x00012517       0x81 ../fir_bsp/\libucosii_bsp.a(netmain.o)
 .debug_loc     0x00012598       0x2b ../fir_bsp/\libucosii_bsp.a(tcpcksum.o)
 .debug_loc     0x000125c3      0x35c ../fir_bsp/\libucosii_bsp.a(dhcpclnt.o)
 .debug_loc     0x0001291f       0x2b ../fir_bsp/\libucosii_bsp.a(dhcputil.o)
 .debug_loc     0x0001294a       0x56 ../fir_bsp/\libucosii_bsp.a(udp_open.o)
 .debug_loc     0x000129a0      0x158 ../fir_bsp/\libucosii_bsp.a(in_pcb.o)
 .debug_loc     0x00012af8      0x4b4 ../fir_bsp/\libucosii_bsp.a(vfsfiles.o)
 .debug_loc     0x00012fac       0x2b ../fir_bsp/\libucosii_bsp.a(vfsport.o)
 .debug_loc     0x00012fd7       0x56 ../fir_bsp/\libucosii_bsp.a(alt_fcntl.o)
 .debug_loc     0x0001302d       0x2b ../fir_bsp/\libucosii_bsp.a(alt_find_file.o)
 .debug_loc     0x00013058       0x2b ../fir_bsp/\libucosii_bsp.a(alt_get_fd.o)
 .debug_loc     0x00013083       0xac ../fir_bsp/\libucosii_bsp.a(timeouts.o)
 .debug_loc     0x0001312f       0xad ../fir_bsp/\libucosii_bsp.a(icmp.o)
 .debug_loc     0x000131dc      0x2b2 ../fir_bsp/\libucosii_bsp.a(ip_reasm.o)
 .debug_loc     0x0001348e       0x1e d:/altera/13.0sp1/nios2eds/bin/gnu/h-i686-mingw32/bin/../lib/gcc/nios2-elf/4.1.2/../../../../nios2-elf/lib\libc.a(lib_a-atexit.o)
 .debug_loc     0x000134ac       0x39 d:/altera/13.0sp1/nios2eds/bin/gnu/h-i686-mingw32/bin/../lib/gcc/nios2-elf/4.1.2/../../../../nios2-elf/lib\libc.a(lib_a-atoi.o)
 .debug_loc     0x000134e5       0x3c d:/altera/13.0sp1/nios2eds/bin/gnu/h-i686-mingw32/bin/../lib/gcc/nios2-elf/4.1.2/../../../../nios2-elf/lib\libc.a(lib_a-calloc.o)
 .debug_loc     0x00013521      0x114 d:/altera/13.0sp1/nios2eds/bin/gnu/h-i686-mingw32/bin/../lib/gcc/nios2-elf/4.1.2/../../../../nios2-elf/lib\libc.a(lib_a-memcmp.o)
 .debug_loc     0x00013635       0xc0 d:/altera/13.0sp1/nios2eds/bin/gnu/h-i686-mingw32/bin/../lib/gcc/nios2-elf/4.1.2/../../../../nios2-elf/lib\libc.a(lib_a-sprintf.o)
 .debug_loc     0x000136f5       0x8b d:/altera/13.0sp1/nios2eds/bin/gnu/h-i686-mingw32/bin/../lib/gcc/nios2-elf/4.1.2/../../../../nios2-elf/lib\libc.a(lib_a-strcpy.o)
 .debug_loc     0x00013780       0x78 d:/altera/13.0sp1/nios2eds/bin/gnu/h-i686-mingw32/bin/../lib/gcc/nios2-elf/4.1.2/../../../../nios2-elf/lib\libc.a(lib_a-strncmp.o)
 .debug_loc     0x000137f8       0xeb d:/altera/13.0sp1/nios2eds/bin/gnu/h-i686-mingw32/bin/../lib/gcc/nios2-elf/4.1.2/../../../../nios2-elf/lib\libc.a(lib_a-strncpy.o)
 .debug_loc     0x000138e3      0x346 d:/altera/13.0sp1/nios2eds/bin/gnu/h-i686-mingw32/bin/../lib/gcc/nios2-elf/4.1.2/../../../../nios2-elf/lib\libc.a(lib_a-strtol.o)
 .debug_loc     0x00013c29       0x8b d:/altera/13.0sp1/nios2eds/bin/gnu/h-i686-mingw32/bin/../lib/gcc/nios2-elf/4.1.2/../../../../nios2-elf/lib\libc.a(lib_a-vprintf.o)
 .debug_loc     0x00013cb4       0xd1 d:/altera/13.0sp1/nios2eds/bin/gnu/h-i686-mingw32/bin/../lib/gcc/nios2-elf/4.1.2/../../../../nios2-elf/lib\libc.a(lib_a-vsprintf.o)
 .debug_loc     0x00013d85      0x120 d:/altera/13.0sp1/nios2eds/bin/gnu/h-i686-mingw32/bin/../lib/gcc/nios2-elf/4.1.2/../../../../nios2-elf/lib\libc.a(lib_a-__atexit.o)

.debug_macinfo
 *(.debug_macinfo)

.debug_weaknames
 *(.debug_weaknames)

.debug_funcnames
 *(.debug_funcnames)

.debug_typenames
 *(.debug_typenames)

.debug_varnames
 *(.debug_varnames)

.debug_alt_sim_info
                0x00000000       0x50
 *(.debug_alt_sim_info)
 .debug_alt_sim_info
                0x00000000       0x20 ../fir_bsp//obj/HAL/src/crt0.o
 .debug_alt_sim_info
                0x00000020       0x30 ../fir_bsp/\libucosii_bsp.a(alt_busy_sleep.o)
                0x01000000                __alt_data_end = 0x1000000
                0x01000000                PROVIDE (__alt_stack_pointer, __alt_data_end)
                0x00858604                PROVIDE (__alt_stack_limit, __alt_stack_base)
                0x00858604                PROVIDE (__alt_heap_start, end)
                0x01000000                PROVIDE (__alt_heap_limit, 0x1000000)
OUTPUT(fir.elf elf32-littlenios2)

.debug_ranges   0x00000000      0x9a0
 .debug_ranges  0x00000000       0x30 d:/altera/13.0sp1/nios2eds/bin/gnu/h-i686-mingw32/bin/../lib/gcc/nios2-elf/4.1.2\libgcc.a(_addsub_df.o)
 .debug_ranges  0x00000030       0x88 d:/altera/13.0sp1/nios2eds/bin/gnu/h-i686-mingw32/bin/../lib/gcc/nios2-elf/4.1.2\libgcc.a(_mul_df.o)
 .debug_ranges  0x000000b8       0x18 d:/altera/13.0sp1/nios2eds/bin/gnu/h-i686-mingw32/bin/../lib/gcc/nios2-elf/4.1.2\libgcc.a(_usi_to_df.o)
 .debug_ranges  0x000000d0       0x68 d:/altera/13.0sp1/nios2eds/bin/gnu/h-i686-mingw32/bin/../lib/gcc/nios2-elf/4.1.2\libgcc.a(_muldi3.o)
 .debug_ranges  0x00000138       0x28 d:/altera/13.0sp1/nios2eds/bin/gnu/h-i686-mingw32/bin/../lib/gcc/nios2-elf/4.1.2\libgcc.a(_clzsi2.o)
 .debug_ranges  0x00000160       0x28 d:/altera/13.0sp1/nios2eds/bin/gnu/h-i686-mingw32/bin/../lib/gcc/nios2-elf/4.1.2\libgcc.a(_pack_df.o)
 .debug_ranges  0x00000188       0x70 d:/altera/13.0sp1/nios2eds/bin/gnu/h-i686-mingw32/bin/../lib/gcc/nios2-elf/4.1.2/../../../../nios2-elf/lib\libc.a(lib_a-mallocr.o)
 .debug_ranges  0x000001f8      0x168 d:/altera/13.0sp1/nios2eds/bin/gnu/h-i686-mingw32/bin/../lib/gcc/nios2-elf/4.1.2/../../../../nios2-elf/lib\libc.a(lib_a-vfprintf.o)
 .debug_ranges  0x00000360       0x18 d:/altera/13.0sp1/nios2eds/bin/gnu/h-i686-mingw32/bin/../lib/gcc/nios2-elf/4.1.2/../../../../nios2-elf/lib\libc.a(lib_a-__call_atexit.o)
 .debug_ranges  0x00000378       0x20 d:/altera/13.0sp1/nios2eds/bin/gnu/h-i686-mingw32/bin/../lib/gcc/nios2-elf/4.1.2/../../../../nios2-elf/lib\libc.a(lib_a-fflush.o)
 .debug_ranges  0x00000398       0x28 d:/altera/13.0sp1/nios2eds/bin/gnu/h-i686-mingw32/bin/../lib/gcc/nios2-elf/4.1.2/../../../../nios2-elf/lib\libc.a(lib_a-fvwrite.o)
 .debug_ranges  0x000003c0       0xa0 d:/altera/13.0sp1/nios2eds/bin/gnu/h-i686-mingw32/bin/../lib/gcc/nios2-elf/4.1.2/../../../../nios2-elf/lib\libc.a(lib_a-fwalk.o)
 .debug_ranges  0x00000460      0x110 d:/altera/13.0sp1/nios2eds/bin/gnu/h-i686-mingw32/bin/../lib/gcc/nios2-elf/4.1.2/../../../../nios2-elf/lib\libc.a(lib_a-reallocr.o)
 .debug_ranges  0x00000570       0x38 d:/altera/13.0sp1/nios2eds/bin/gnu/h-i686-mingw32/bin/../lib/gcc/nios2-elf/4.1.2/../../../../nios2-elf/lib\libc.a(lib_a-callocr.o)
 .debug_ranges  0x000005a8      0x188 d:/altera/13.0sp1/nios2eds/bin/gnu/h-i686-mingw32/bin/../lib/gcc/nios2-elf/4.1.2\libgcc.a(_udivdi3.o)
 .debug_ranges  0x00000730      0x198 d:/altera/13.0sp1/nios2eds/bin/gnu/h-i686-mingw32/bin/../lib/gcc/nios2-elf/4.1.2\libgcc.a(_umoddi3.o)
 .debug_ranges  0x000008c8       0x50 d:/altera/13.0sp1/nios2eds/bin/gnu/h-i686-mingw32/bin/../lib/gcc/nios2-elf/4.1.2\libgcc.a(_div_df.o)
 .debug_ranges  0x00000918       0x18 ../fir_bsp/\libucosii_bsp.a(altera_avalon_jtag_uart_init.o)
 .debug_ranges  0x00000930       0x18 ../fir_bsp/\libucosii_bsp.a(altera_avalon_uart_init.o)
 .debug_ranges  0x00000948       0x28 ../fir_bsp/\libucosii_bsp.a(alt_irq_entry.o)
 .debug_ranges  0x00000970       0x30 ../fir_bsp/\libucosii_bsp.a(alt_exception_entry.o)
